

Microchip MPLAB XC8 Assembler V2.35 build 20211206165544 
                                                                                               Sat Apr 23 23:34:59 2022

Microchip MPLAB XC8 C Compiler v2.35 (Free license) build 20211206165544 Og1 
     1                           	processor	16F887
     2                           	pagewidth 120
     3                           	opt	flic
     4                           	psect	idataBANK0,global,class=CODE,delta=2,noexec
     5                           	psect	cinit,global,class=CODE,merge=1,delta=2
     6                           	psect	bssBANK0,global,class=BANK0,space=1,delta=1,noexec
     7                           	psect	dataBANK0,global,class=BANK0,space=1,delta=1,noexec
     8                           	psect	cstackBANK1,global,class=BANK1,space=1,delta=1,noexec
     9                           	psect	cstackCOMMON,global,class=COMMON,space=1,delta=1,noexec
    10                           	psect	cstackBANK0,global,class=BANK0,space=1,delta=1,noexec
    11                           	psect	maintext,global,class=CODE,split=1,delta=2
    12                           	psect	text1,local,class=CODE,merge=1,delta=2
    13                           	psect	text2,local,class=CODE,merge=1,delta=2
    14                           	psect	intentry,global,class=CODE,delta=2
    15                           	psect	text3,local,class=CODE,merge=1,delta=2
    16                           	psect	text4,local,class=CODE,merge=1,delta=2
    17                           	psect	text5,local,class=CODE,merge=1,delta=2
    18                           	psect	text6,local,class=CODE,merge=1,delta=2,group=1
    19                           	psect	text7,local,class=CODE,merge=1,delta=2,group=1
    20                           	psect	text8,local,class=CODE,merge=1,delta=2,group=1
    21                           	psect	text9,local,class=CODE,merge=1,delta=2,group=1
    22                           	psect	text10,local,class=CODE,merge=1,delta=2,group=1
    23                           	psect	text11,local,class=CODE,merge=1,delta=2,group=1
    24                           	psect	idloc,global,abs,ovrld,class=IDLOC,space=5,delta=2,noexec
    25                           	psect	config,global,abs,ovrld,class=CONFIG,space=4,delta=2,noexec
    26                           	dabs	1,0x7E,2
    27  0000                     
    28                           ; Version 2.40
    29                           ; Generated 17/11/2021 GMT
    30                           ; 
    31                           ; Copyright © 2021, Microchip Technology Inc. and its subsidiaries ("Microchip")
    32                           ; All rights reserved.
    33                           ; 
    34                           ; This software is developed by Microchip Technology Inc. and its subsidiaries ("Microch
      +                          ip").
    35                           ; 
    36                           ; Redistribution and use in source and binary forms, with or without modification, are
    37                           ; permitted provided that the following conditions are met:
    38                           ; 
    39                           ;     1. Redistributions of source code must retain the above copyright notice, this lis
      +                          t of
    40                           ;        conditions and the following disclaimer.
    41                           ; 
    42                           ;     2. Redistributions in binary form must reproduce the above copyright notice, this 
      +                          list
    43                           ;        of conditions and the following disclaimer in the documentation and/or other
    44                           ;        materials provided with the distribution. Publication is not required when
    45                           ;        this file is used in an embedded application.
    46                           ; 
    47                           ;     3. Microchip's name may not be used to endorse or promote products derived from th
      +                          is
    48                           ;        software without specific prior written permission.
    49                           ; 
    50                           ; THIS SOFTWARE IS PROVIDED BY MICROCHIP "AS IS" AND ANY EXPRESS OR IMPLIED WARRANTIES,
    51                           ; INCLUDING, BUT NOT LIMITED TO, THE IMPLIED WARRANTIES OF MERCHANTABILITY AND FITNESS F
      +                          OR
    52                           ; PURPOSE ARE DISCLAIMED.  IN NO EVENT SHALL MICROCHIP BE LIABLE FOR ANY DIRECT, INDIREC
      +                          T,
    53                           ; INCIDENTAL, SPECIAL, EXEMPLARY, OR CONSEQUENTIAL DAMAGES (INCLUDING BUT NOT LIMITED TO
    54                           ; PROCUREMENT OF SUBSTITUTE GOODS OR SERVICES; LOSS OF USE, DATA OR PROFITS; OR BUSINESS
    55                           ; INTERRUPTION) HOWSOEVER CAUSED AND ON ANY THEORY OF LIABILITY, WHETHER IN CONTRACT, ST
      +                          RICT
    56                           ; LIABILITY, OR TORT (INCLUDING NEGLIGENCE OR OTHERWISE) ARISING IN ANY WAY OUT OF THE U
      +                          SE OF
    57                           ; THIS SOFTWARE, EVEN IF ADVISED OF THE POSSIBILITY OF SUCH DAMAGE.
    58                           ; 
    59                           ; 
    60                           ; Code-generator required, PIC16F887 Definitions
    61                           ; 
    62                           ; SFR Addresses
    63  0000                     	;# 
    64  0001                     	;# 
    65  0002                     	;# 
    66  0003                     	;# 
    67  0004                     	;# 
    68  0005                     	;# 
    69  0006                     	;# 
    70  0007                     	;# 
    71  0008                     	;# 
    72  0009                     	;# 
    73  000A                     	;# 
    74  000B                     	;# 
    75  000C                     	;# 
    76  000D                     	;# 
    77  000E                     	;# 
    78  000E                     	;# 
    79  000F                     	;# 
    80  0010                     	;# 
    81  0011                     	;# 
    82  0012                     	;# 
    83  0013                     	;# 
    84  0014                     	;# 
    85  0015                     	;# 
    86  0015                     	;# 
    87  0016                     	;# 
    88  0017                     	;# 
    89  0018                     	;# 
    90  0019                     	;# 
    91  001A                     	;# 
    92  001B                     	;# 
    93  001B                     	;# 
    94  001C                     	;# 
    95  001D                     	;# 
    96  001E                     	;# 
    97  001F                     	;# 
    98  0081                     	;# 
    99  0085                     	;# 
   100  0086                     	;# 
   101  0087                     	;# 
   102  0088                     	;# 
   103  0089                     	;# 
   104  008C                     	;# 
   105  008D                     	;# 
   106  008E                     	;# 
   107  008F                     	;# 
   108  0090                     	;# 
   109  0091                     	;# 
   110  0092                     	;# 
   111  0093                     	;# 
   112  0093                     	;# 
   113  0093                     	;# 
   114  0094                     	;# 
   115  0095                     	;# 
   116  0096                     	;# 
   117  0097                     	;# 
   118  0098                     	;# 
   119  0099                     	;# 
   120  009A                     	;# 
   121  009B                     	;# 
   122  009C                     	;# 
   123  009D                     	;# 
   124  009E                     	;# 
   125  009F                     	;# 
   126  0105                     	;# 
   127  0107                     	;# 
   128  0108                     	;# 
   129  0109                     	;# 
   130  010C                     	;# 
   131  010C                     	;# 
   132  010D                     	;# 
   133  010E                     	;# 
   134  010F                     	;# 
   135  0185                     	;# 
   136  0187                     	;# 
   137  0188                     	;# 
   138  0189                     	;# 
   139  018C                     	;# 
   140  018D                     	;# 
   141  0000                     	;# 
   142  0001                     	;# 
   143  0002                     	;# 
   144  0003                     	;# 
   145  0004                     	;# 
   146  0005                     	;# 
   147  0006                     	;# 
   148  0007                     	;# 
   149  0008                     	;# 
   150  0009                     	;# 
   151  000A                     	;# 
   152  000B                     	;# 
   153  000C                     	;# 
   154  000D                     	;# 
   155  000E                     	;# 
   156  000E                     	;# 
   157  000F                     	;# 
   158  0010                     	;# 
   159  0011                     	;# 
   160  0012                     	;# 
   161  0013                     	;# 
   162  0014                     	;# 
   163  0015                     	;# 
   164  0015                     	;# 
   165  0016                     	;# 
   166  0017                     	;# 
   167  0018                     	;# 
   168  0019                     	;# 
   169  001A                     	;# 
   170  001B                     	;# 
   171  001B                     	;# 
   172  001C                     	;# 
   173  001D                     	;# 
   174  001E                     	;# 
   175  001F                     	;# 
   176  0081                     	;# 
   177  0085                     	;# 
   178  0086                     	;# 
   179  0087                     	;# 
   180  0088                     	;# 
   181  0089                     	;# 
   182  008C                     	;# 
   183  008D                     	;# 
   184  008E                     	;# 
   185  008F                     	;# 
   186  0090                     	;# 
   187  0091                     	;# 
   188  0092                     	;# 
   189  0093                     	;# 
   190  0093                     	;# 
   191  0093                     	;# 
   192  0094                     	;# 
   193  0095                     	;# 
   194  0096                     	;# 
   195  0097                     	;# 
   196  0098                     	;# 
   197  0099                     	;# 
   198  009A                     	;# 
   199  009B                     	;# 
   200  009C                     	;# 
   201  009D                     	;# 
   202  009E                     	;# 
   203  009F                     	;# 
   204  0105                     	;# 
   205  0107                     	;# 
   206  0108                     	;# 
   207  0109                     	;# 
   208  010C                     	;# 
   209  010C                     	;# 
   210  010D                     	;# 
   211  010E                     	;# 
   212  010F                     	;# 
   213  0185                     	;# 
   214  0187                     	;# 
   215  0188                     	;# 
   216  0189                     	;# 
   217  018C                     	;# 
   218  018D                     	;# 
   219                           
   220                           	psect	idataBANK0
   221  07C7                     __pidataBANK0:
   222                           
   223                           ;initializer for _selector
   224  07C7  3401               	retlw	1
   225  07C8  3400               	retlw	0
   226  0001                     _TMR0	set	1
   227  0008                     _PORTD	set	8
   228  0007                     _PORTC	set	7
   229  0005                     _PORTA	set	5
   230  000B                     _INTCONbits	set	11
   231  001E                     _ADRESH	set	30
   232  0006                     _PORTB	set	6
   233  001F                     _ADCON0bits	set	31
   234  000C                     _PIR1bits	set	12
   235  0081                     _OPTION_REGbits	set	129
   236  008C                     _PIE1bits	set	140
   237  009F                     _ADCON1bits	set	159
   238  0088                     _TRISD	set	136
   239  0087                     _TRISC	set	135
   240  0086                     _TRISB	set	134
   241  0085                     _TRISA	set	133
   242  008F                     _OSCCONbits	set	143
   243  0189                     _ANSELH	set	393
   244  0188                     _ANSEL	set	392
   245                           
   246                           	psect	cinit
   247  0015                     start_initialization:	
   248                           ; #config settings
   249                           
   250  0015                     __initialization:
   251                           
   252                           ; Initialize objects allocated to BANK0
   253  0015  120A  118A  27C7  120A  118A  	fcall	__pidataBANK0	;fetch initializer
   254  001A  00DF               	movwf	__pdataBANK0& (0+127)
   255  001B  120A  118A  27C8  120A  118A  	fcall	__pidataBANK0+1	;fetch initializer
   256  0020  00E0               	movwf	(__pdataBANK0+1)& (0+127)
   257                           
   258                           ; Clear objects allocated to BANK0
   259  0021  01D1               	clrf	__pbssBANK0& (0+127)
   260  0022  01D2               	clrf	(__pbssBANK0+1)& (0+127)
   261  0023  01D3               	clrf	(__pbssBANK0+2)& (0+127)
   262  0024  01D4               	clrf	(__pbssBANK0+3)& (0+127)
   263  0025  01D5               	clrf	(__pbssBANK0+4)& (0+127)
   264  0026  01D6               	clrf	(__pbssBANK0+5)& (0+127)
   265  0027  01D7               	clrf	(__pbssBANK0+6)& (0+127)
   266  0028  01D8               	clrf	(__pbssBANK0+7)& (0+127)
   267  0029  01D9               	clrf	(__pbssBANK0+8)& (0+127)
   268  002A  01DA               	clrf	(__pbssBANK0+9)& (0+127)
   269  002B  01DB               	clrf	(__pbssBANK0+10)& (0+127)
   270  002C  01DC               	clrf	(__pbssBANK0+11)& (0+127)
   271  002D  01DD               	clrf	(__pbssBANK0+12)& (0+127)
   272  002E  01DE               	clrf	(__pbssBANK0+13)& (0+127)
   273  002F                     end_of_initialization:	
   274                           ;End of C runtime variable initialization code
   275                           
   276  002F                     __end_of__initialization:
   277  002F  0183               	clrf	3
   278  0030  120A  118A  2EC8   	ljmp	_main	;jump to C main() function
   279                           
   280                           	psect	bssBANK0
   281  0051                     __pbssBANK0:
   282  0051                     _display_values:
   283  0051                     	ds	6
   284  0057                     _decimal_counter:
   285  0057                     	ds	6
   286  005D                     _adc_temp:
   287  005D                     	ds	2
   288                           
   289                           	psect	dataBANK0
   290  005F                     __pdataBANK0:
   291  005F                     _selector:
   292  005F                     	ds	2
   293                           
   294                           	psect	cstackBANK1
   295  00A0                     __pcstackBANK1:
   296  00A0                     ??_setup:
   297  00A0                     ??_main:	
   298                           ; 1 bytes @ 0x0
   299                           
   300                           
   301                           ; 1 bytes @ 0x0
   302  00A0                     	ds	1
   303                           
   304                           	psect	cstackCOMMON
   305  0070                     __pcstackCOMMON:
   306  0070                     ?_reset_TMR0:
   307  0070                     ??_reset_TMR0:	
   308                           ; 1 bytes @ 0x0
   309                           
   310  0070                     ?_select_display:	
   311                           ; 1 bytes @ 0x0
   312                           
   313  0070                     ??_select_display:	
   314                           ; 1 bytes @ 0x0
   315                           
   316  0070                     ?_display_table:	
   317                           ; 1 bytes @ 0x0
   318                           
   319  0070                     ?_setup:	
   320                           ; 1 bytes @ 0x0
   321                           
   322  0070                     ?_isr:	
   323                           ; 1 bytes @ 0x0
   324                           
   325  0070                     ?_main:	
   326                           ; 1 bytes @ 0x0
   327                           
   328  0070                     ?__Umul8_16:	
   329                           ; 1 bytes @ 0x0
   330                           
   331  0070                     ?___wmul:	
   332                           ; 2 bytes @ 0x0
   333                           
   334  0070                     ?___awdiv:	
   335                           ; 2 bytes @ 0x0
   336                           
   337  0070                     ?___xxtofl:	
   338                           ; 2 bytes @ 0x0
   339                           
   340  0070                     __Umul8_16@multiplicand:	
   341                           ; 4 bytes @ 0x0
   342                           
   343  0070                     display_table@decimal_value:	
   344                           ; 1 bytes @ 0x0
   345                           
   346  0070                     ___wmul@multiplier:	
   347                           ; 2 bytes @ 0x0
   348                           
   349  0070                     ___awdiv@divisor:	
   350                           ; 2 bytes @ 0x0
   351                           
   352  0070                     ___xxtofl@val:	
   353                           ; 2 bytes @ 0x0
   354                           
   355                           
   356                           ; 4 bytes @ 0x0
   357  0070                     	ds	2
   358  0072                     ??_display_table:
   359  0072                     ??__Umul8_16:	
   360                           ; 1 bytes @ 0x2
   361                           
   362  0072                     ___wmul@multiplicand:	
   363                           ; 1 bytes @ 0x2
   364                           
   365  0072                     ___awdiv@dividend:	
   366                           ; 2 bytes @ 0x2
   367                           
   368                           
   369                           ; 2 bytes @ 0x2
   370  0072                     	ds	2
   371  0074                     ??___wmul:
   372  0074                     ??___awdiv:	
   373                           ; 1 bytes @ 0x4
   374                           
   375  0074                     ??___xxtofl:	
   376                           ; 1 bytes @ 0x4
   377                           
   378  0074                     ___wmul@product:	
   379                           ; 1 bytes @ 0x4
   380                           
   381  0074                     __Umul8_16@product:	
   382                           ; 2 bytes @ 0x4
   383                           
   384                           
   385                           ; 2 bytes @ 0x4
   386  0074                     	ds	1
   387  0075                     ___awdiv@counter:
   388                           
   389                           ; 1 bytes @ 0x5
   390  0075                     	ds	1
   391  0076                     ___awdiv@sign:
   392  0076                     __Umul8_16@word_mpld:	
   393                           ; 1 bytes @ 0x6
   394                           
   395                           
   396                           ; 2 bytes @ 0x6
   397  0076                     	ds	1
   398  0077                     ___awdiv@quotient:
   399                           
   400                           ; 2 bytes @ 0x7
   401  0077                     	ds	1
   402  0078                     __Umul8_16@multiplier:
   403  0078                     ___xxtofl@sign:	
   404                           ; 1 bytes @ 0x8
   405                           
   406                           
   407                           ; 1 bytes @ 0x8
   408  0078                     	ds	1
   409  0079                     ___xxtofl@exp:
   410                           
   411                           ; 1 bytes @ 0x9
   412  0079                     	ds	1
   413  007A                     ___xxtofl@arg:
   414                           
   415                           ; 4 bytes @ 0xA
   416  007A                     	ds	4
   417                           
   418                           	psect	cstackBANK0
   419  0020                     __pcstackBANK0:
   420  0020                     ?___flmul:
   421  0020                     ___flmul@b:	
   422                           ; 4 bytes @ 0x0
   423                           
   424                           
   425                           ; 4 bytes @ 0x0
   426  0020                     	ds	4
   427  0024                     ___flmul@a:
   428                           
   429                           ; 4 bytes @ 0x4
   430  0024                     	ds	4
   431  0028                     ??___flmul:
   432                           
   433                           ; 1 bytes @ 0x8
   434  0028                     	ds	5
   435  002D                     ___flmul@sign:
   436                           
   437                           ; 1 bytes @ 0xD
   438  002D                     	ds	1
   439  002E                     ___flmul@grs:
   440                           
   441                           ; 4 bytes @ 0xE
   442  002E                     	ds	4
   443  0032                     ___flmul@aexp:
   444                           
   445                           ; 1 bytes @ 0x12
   446  0032                     	ds	1
   447  0033                     ___flmul@bexp:
   448                           
   449                           ; 1 bytes @ 0x13
   450  0033                     	ds	1
   451  0034                     ___flmul@prod:
   452                           
   453                           ; 4 bytes @ 0x14
   454  0034                     	ds	4
   455  0038                     ___flmul@temp:
   456                           
   457                           ; 2 bytes @ 0x18
   458  0038                     	ds	2
   459  003A                     ?___fltol:
   460  003A                     ___fltol@f1:	
   461                           ; 4 bytes @ 0x1A
   462                           
   463                           
   464                           ; 4 bytes @ 0x1A
   465  003A                     	ds	4
   466  003E                     ??___fltol:
   467                           
   468                           ; 1 bytes @ 0x1E
   469  003E                     	ds	5
   470  0043                     ___fltol@sign1:
   471                           
   472                           ; 1 bytes @ 0x23
   473  0043                     	ds	1
   474  0044                     ___fltol@exp1:
   475                           
   476                           ; 1 bytes @ 0x24
   477  0044                     	ds	1
   478  0045                     ??_isr:
   479                           
   480                           ; 1 bytes @ 0x25
   481  0045                     	ds	8
   482  004D                     _isr$893:
   483                           
   484                           ; 4 bytes @ 0x2D
   485  004D                     	ds	4
   486                           
   487                           	psect	maintext
   488  06C8                     __pmaintext:	
   489 ;;
   490 ;;Main: autosize = 0, tempsize = 1, incstack = 0, save=0
   491 ;;
   492 ;; *************** function _main *****************
   493 ;; Defined at:
   494 ;;		line 116 in file "main.c"
   495 ;; Parameters:    Size  Location     Type
   496 ;;		None
   497 ;; Auto vars:     Size  Location     Type
   498 ;;		None
   499 ;; Return value:  Size  Location     Type
   500 ;;                  1    wreg      void 
   501 ;; Registers used:
   502 ;;		wreg, status,2, status,0, pclath, cstack
   503 ;; Tracked objects:
   504 ;;		On entry : B00/0
   505 ;;		On exit  : 0/0
   506 ;;		Unchanged: 0/0
   507 ;; Data sizes:     COMMON   BANK0   BANK1   BANK3   BANK2
   508 ;;      Params:         0       0       0       0       0
   509 ;;      Locals:         0       0       0       0       0
   510 ;;      Temps:          0       0       1       0       0
   511 ;;      Totals:         0       0       1       0       0
   512 ;;Total ram usage:        1 bytes
   513 ;; Hardware stack levels required when called: 4
   514 ;; This function calls:
   515 ;;		_setup
   516 ;; This function is called by:
   517 ;;		Startup code after reset
   518 ;; This function uses a non-reentrant model
   519 ;;
   520                           
   521  06C8                     _main:	
   522                           ;psect for function _main
   523                           
   524  06C8                     l1658:	
   525                           ;incstack = 0
   526                           ; Regs used in _main: [wreg+status,2+status,0+pclath+cstack]
   527                           
   528                           
   529                           ;main.c: 118:     setup();
   530  06C8  120A  118A  2741  120A  118A  	fcall	_setup
   531  06CD                     l1660:
   532                           
   533                           ;main.c: 119:     _delay((unsigned long)((40)*(4000000/4000000.0)));
   534  06CD  300C               	movlw	12
   535  06CE  1683               	bsf	3,5	;RP0=1, select bank1
   536  06CF  1303               	bcf	3,6	;RP1=0, select bank1
   537  06D0  00A0               	movwf	??_main^(0+128)
   538  06D1                     u1837:
   539  06D1  0BA0               	decfsz	??_main^(0+128),f
   540  06D2  2ED1               	goto	u1837
   541  06D3  0000               	nop
   542  06D4                     l1662:
   543                           
   544                           ;main.c: 123:     {;main.c: 124:         if (ADCON0bits.GO == 0)
   545  06D4  1283               	bcf	3,5	;RP0=0, select bank0
   546  06D5  1303               	bcf	3,6	;RP1=0, select bank0
   547  06D6  189F               	btfsc	31,1	;volatile
   548  06D7  2ED9               	goto	u1801
   549  06D8  2EDA               	goto	u1800
   550  06D9                     u1801:
   551  06D9  2ED4               	goto	l1662
   552  06DA                     u1800:
   553  06DA                     l1664:
   554                           
   555                           ;main.c: 125:         {;main.c: 126:             if (ADCON0bits.CHS == 0b0000)
   556  06DA  0C1F               	rrf	31,w	;volatile
   557  06DB  1683               	bsf	3,5	;RP0=1, select bank1
   558  06DC  1303               	bcf	3,6	;RP1=0, select bank1
   559  06DD  00A0               	movwf	??_main^(0+128)
   560  06DE  0C20               	rrf	??_main^(0+128),w
   561  06DF  390F               	andlw	15
   562  06E0  3A00               	xorlw	0
   563  06E1  1D03               	skipz
   564  06E2  2EE4               	goto	u1811
   565  06E3  2EE5               	goto	u1810
   566  06E4                     u1811:
   567  06E4  2EEC               	goto	l1668
   568  06E5                     u1810:
   569  06E5                     l1666:
   570                           
   571                           ;main.c: 127:                 ADCON0bits.CHS = 0b0001;
   572  06E5  1283               	bcf	3,5	;RP0=0, select bank0
   573  06E6  1303               	bcf	3,6	;RP1=0, select bank0
   574  06E7  081F               	movf	31,w	;volatile
   575  06E8  39C3               	andlw	-61
   576  06E9  3804               	iorlw	4
   577  06EA  009F               	movwf	31	;volatile
   578  06EB  2EFD               	goto	l1672
   579  06EC                     l1668:
   580  06EC  1283               	bcf	3,5	;RP0=0, select bank0
   581  06ED  1303               	bcf	3,6	;RP1=0, select bank0
   582  06EE  0C1F               	rrf	31,w	;volatile
   583  06EF  1683               	bsf	3,5	;RP0=1, select bank1
   584  06F0  1303               	bcf	3,6	;RP1=0, select bank1
   585  06F1  00A0               	movwf	??_main^(0+128)
   586  06F2  0C20               	rrf	??_main^(0+128),w
   587  06F3  390F               	andlw	15
   588  06F4  3A01               	xorlw	1
   589  06F5  1D03               	skipz
   590  06F6  2EF8               	goto	u1821
   591  06F7  2EF9               	goto	u1820
   592  06F8                     u1821:
   593  06F8  2EFD               	goto	l1672
   594  06F9                     u1820:
   595  06F9                     l1670:
   596                           
   597                           ;main.c: 130:                 ADCON0bits.CHS = 0b0000;
   598  06F9  30C3               	movlw	-61
   599  06FA  1283               	bcf	3,5	;RP0=0, select bank0
   600  06FB  1303               	bcf	3,6	;RP1=0, select bank0
   601  06FC  059F               	andwf	31,f	;volatile
   602  06FD                     l1672:
   603                           
   604                           ;main.c: 132:             _delay((unsigned long)((40)*(4000000/4000000.0)));
   605  06FD  300C               	movlw	12
   606  06FE  1683               	bsf	3,5	;RP0=1, select bank1
   607  06FF  1303               	bcf	3,6	;RP1=0, select bank1
   608  0700  00A0               	movwf	??_main^(0+128)
   609  0701                     u1847:
   610  0701  0BA0               	decfsz	??_main^(0+128),f
   611  0702  2F01               	goto	u1847
   612  0703  0000               	nop
   613  0704                     l1674:
   614                           
   615                           ;main.c: 133:             ADCON0bits.GO = 1;
   616  0704  1283               	bcf	3,5	;RP0=0, select bank0
   617  0705  1303               	bcf	3,6	;RP1=0, select bank0
   618  0706  149F               	bsf	31,1	;volatile
   619  0707  2ED4               	goto	l1662
   620  0708  120A  118A  2812   	ljmp	start
   621  070B                     __end_of_main:
   622                           
   623                           	psect	text1
   624  0741                     __ptext1:	
   625 ;; *************** function _setup *****************
   626 ;; Defined at:
   627 ;;		line 143 in file "main.c"
   628 ;; Parameters:    Size  Location     Type
   629 ;;		None
   630 ;; Auto vars:     Size  Location     Type
   631 ;;		None
   632 ;; Return value:  Size  Location     Type
   633 ;;                  1    wreg      void 
   634 ;; Registers used:
   635 ;;		wreg, status,2, status,0
   636 ;; Tracked objects:
   637 ;;		On entry : 0/0
   638 ;;		On exit  : 0/0
   639 ;;		Unchanged: 0/0
   640 ;; Data sizes:     COMMON   BANK0   BANK1   BANK3   BANK2
   641 ;;      Params:         0       0       0       0       0
   642 ;;      Locals:         0       0       0       0       0
   643 ;;      Temps:          0       0       0       0       0
   644 ;;      Totals:         0       0       0       0       0
   645 ;;Total ram usage:        0 bytes
   646 ;; Hardware stack levels used: 1
   647 ;; Hardware stack levels required when called: 3
   648 ;; This function calls:
   649 ;;		Nothing
   650 ;; This function is called by:
   651 ;;		_main
   652 ;; This function uses a non-reentrant model
   653 ;;
   654                           
   655  0741                     _setup:	
   656                           ;psect for function _setup
   657                           
   658  0741                     l1282:	
   659                           ;incstack = 0
   660                           ; Regs used in _setup: [wreg+status,2+status,0]
   661                           
   662                           
   663                           ;main.c: 146:     ANSEL = 0b00000011;
   664  0741  3003               	movlw	3
   665  0742  1683               	bsf	3,5	;RP0=1, select bank3
   666  0743  1703               	bsf	3,6	;RP1=1, select bank3
   667  0744  0088               	movwf	8	;volatile
   668  0745                     l1284:
   669                           
   670                           ;main.c: 147:     ANSELH = 0;
   671  0745  0189               	clrf	9	;volatile
   672  0746                     l1286:
   673                           
   674                           ;main.c: 150:     OSCCONbits.IRCF = 0b0110;
   675  0746  1683               	bsf	3,5	;RP0=1, select bank1
   676  0747  1303               	bcf	3,6	;RP1=0, select bank1
   677  0748  080F               	movf	15,w	;volatile
   678  0749  398F               	andlw	-113
   679  074A  3860               	iorlw	96
   680  074B  008F               	movwf	15	;volatile
   681  074C                     l1288:
   682                           
   683                           ;main.c: 151:     OSCCONbits.SCS = 1;
   684  074C  140F               	bsf	15,0	;volatile
   685  074D                     l1290:
   686                           
   687                           ;main.c: 154:     TRISA = 0b00000011;
   688  074D  3003               	movlw	3
   689  074E  0085               	movwf	5	;volatile
   690  074F                     l1292:
   691                           
   692                           ;main.c: 157:     TRISB = 0;
   693  074F  0186               	clrf	6	;volatile
   694  0750                     l1294:
   695                           
   696                           ;main.c: 158:     TRISC = 0;
   697  0750  0187               	clrf	7	;volatile
   698  0751                     l1296:
   699                           
   700                           ;main.c: 159:     TRISD = 0;
   701  0751  0188               	clrf	8	;volatile
   702  0752                     l1298:
   703                           
   704                           ;main.c: 162:     ADCON0bits.ADON = 1;
   705  0752  1283               	bcf	3,5	;RP0=0, select bank0
   706  0753  1303               	bcf	3,6	;RP1=0, select bank0
   707  0754  141F               	bsf	31,0	;volatile
   708                           
   709                           ;main.c: 163:     ADCON0bits.CHS = 0b0000;
   710  0755  30C3               	movlw	-61
   711  0756  059F               	andwf	31,f	;volatile
   712                           
   713                           ;main.c: 164:     ADCON0bits.ADCS = 0b01;
   714  0757  081F               	movf	31,w	;volatile
   715  0758  393F               	andlw	-193
   716  0759  3840               	iorlw	64
   717  075A  009F               	movwf	31	;volatile
   718  075B                     l1300:
   719                           
   720                           ;main.c: 166:     ADCON1bits.VCFG0 = 0;
   721  075B  1683               	bsf	3,5	;RP0=1, select bank1
   722  075C  1303               	bcf	3,6	;RP1=0, select bank1
   723  075D  121F               	bcf	31,4	;volatile
   724  075E                     l1302:
   725                           
   726                           ;main.c: 167:     ADCON1bits.VCFG1 = 1;
   727  075E  169F               	bsf	31,5	;volatile
   728  075F                     l1304:
   729                           
   730                           ;main.c: 168:     ADCON1bits.ADFM = 0;
   731  075F  139F               	bcf	31,7	;volatile
   732  0760                     l1306:
   733                           
   734                           ;main.c: 171:     INTCONbits.GIE = 1;
   735  0760  178B               	bsf	11,7	;volatile
   736  0761                     l1308:
   737                           
   738                           ;main.c: 172:     INTCONbits.PEIE = 1;
   739  0761  170B               	bsf	11,6	;volatile
   740  0762                     l1310:
   741                           
   742                           ;main.c: 174:     PIE1bits.ADIE = 1;
   743  0762  170C               	bsf	12,6	;volatile
   744  0763                     l1312:
   745                           
   746                           ;main.c: 175:     PIR1bits.ADIF = 0;
   747  0763  1283               	bcf	3,5	;RP0=0, select bank0
   748  0764  1303               	bcf	3,6	;RP1=0, select bank0
   749  0765  130C               	bcf	12,6	;volatile
   750  0766                     l1314:
   751                           
   752                           ;main.c: 178:     INTCONbits.T0IF = 0;
   753  0766  110B               	bcf	11,2	;volatile
   754  0767                     l1316:
   755                           
   756                           ;main.c: 179:     INTCONbits.T0IE = 1;
   757  0767  168B               	bsf	11,5	;volatile
   758  0768                     l1318:
   759                           
   760                           ;main.c: 180:     OPTION_REGbits.T0CS = 0;
   761  0768  1683               	bsf	3,5	;RP0=1, select bank1
   762  0769  1303               	bcf	3,6	;RP1=0, select bank1
   763  076A  1281               	bcf	1,5	;volatile
   764  076B                     l1320:
   765                           
   766                           ;main.c: 181:     OPTION_REGbits.PSA = 0;
   767  076B  1181               	bcf	1,3	;volatile
   768  076C                     l1322:
   769                           
   770                           ;main.c: 182:     OPTION_REGbits.PS2 = 1;
   771  076C  1501               	bsf	1,2	;volatile
   772  076D                     l1324:
   773                           
   774                           ;main.c: 183:     OPTION_REGbits.PS1 = 1;
   775  076D  1481               	bsf	1,1	;volatile
   776  076E                     l1326:
   777                           
   778                           ;main.c: 184:     OPTION_REGbits.PS0 = 1;
   779  076E  1401               	bsf	1,0	;volatile
   780  076F                     l1328:
   781                           
   782                           ;main.c: 187:     PORTA = 0;
   783  076F  1283               	bcf	3,5	;RP0=0, select bank0
   784  0770  1303               	bcf	3,6	;RP1=0, select bank0
   785  0771  0185               	clrf	5	;volatile
   786  0772                     l1330:
   787                           
   788                           ;main.c: 188:     PORTB = 0;
   789  0772  0186               	clrf	6	;volatile
   790  0773                     l1332:
   791                           
   792                           ;main.c: 189:     PORTC = 0;
   793  0773  0187               	clrf	7	;volatile
   794  0774                     l1334:
   795                           
   796                           ;main.c: 190:     PORTD = 0;
   797  0774  0188               	clrf	8	;volatile
   798  0775                     l89:
   799  0775  0008               	return
   800  0776                     __end_of_setup:
   801                           
   802                           	psect	text2
   803  0394                     __ptext2:	
   804 ;; *************** function _isr *****************
   805 ;; Defined at:
   806 ;;		line 64 in file "main.c"
   807 ;; Parameters:    Size  Location     Type
   808 ;;		None
   809 ;; Auto vars:     Size  Location     Type
   810 ;;		None
   811 ;; Return value:  Size  Location     Type
   812 ;;                  1    wreg      void 
   813 ;; Registers used:
   814 ;;		wreg, fsr0l, fsr0h, status,2, status,0, btemp+1, pclath, cstack
   815 ;; Tracked objects:
   816 ;;		On entry : 0/0
   817 ;;		On exit  : 0/0
   818 ;;		Unchanged: 0/0
   819 ;; Data sizes:     COMMON   BANK0   BANK1   BANK3   BANK2
   820 ;;      Params:         0       0       0       0       0
   821 ;;      Locals:         0       4       0       0       0
   822 ;;      Temps:          0       8       0       0       0
   823 ;;      Totals:         0      12       0       0       0
   824 ;;Total ram usage:       12 bytes
   825 ;; Hardware stack levels used: 1
   826 ;; Hardware stack levels required when called: 2
   827 ;; This function calls:
   828 ;;		___awdiv
   829 ;;		___flmul
   830 ;;		___fltol
   831 ;;		___wmul
   832 ;;		___xxtofl
   833 ;;		_display_table
   834 ;;		_reset_TMR0
   835 ;;		_select_display
   836 ;; This function is called by:
   837 ;;		Interrupt level 1
   838 ;; This function uses a non-reentrant model
   839 ;;
   840                           
   841  0394                     _isr:	
   842                           ;psect for function _isr
   843                           
   844  0394                     i1l1616:
   845                           
   846                           ;main.c: 66:     if (PIR1bits.ADIF == 1)
   847  0394  1F0C               	btfss	12,6	;volatile
   848  0395  2B97               	goto	u171_21
   849  0396  2B98               	goto	u171_20
   850  0397                     u171_21:
   851  0397  2C0C               	goto	i1l1628
   852  0398                     u171_20:
   853  0398                     i1l1618:
   854                           
   855                           ;main.c: 67:     {;main.c: 68:         if (ADCON0bits.CHS == 0b0000)
   856  0398  0C1F               	rrf	31,w	;volatile
   857  0399  00C5               	movwf	??_isr
   858  039A  0C45               	rrf	??_isr,w
   859  039B  390F               	andlw	15
   860  039C  3A00               	xorlw	0
   861  039D  1D03               	skipz
   862  039E  2BA0               	goto	u172_21
   863  039F  2BA1               	goto	u172_20
   864  03A0                     u172_21:
   865  03A0  2BA4               	goto	i1l1622
   866  03A1                     u172_20:
   867  03A1                     i1l1620:
   868                           
   869                           ;main.c: 69:             PORTB = ADRESH;
   870  03A1  081E               	movf	30,w	;volatile
   871  03A2  0086               	movwf	6	;volatile
   872  03A3  2C0B               	goto	i1l1626
   873  03A4                     i1l1622:
   874  03A4  0C1F               	rrf	31,w	;volatile
   875  03A5  00C5               	movwf	??_isr
   876  03A6  0C45               	rrf	??_isr,w
   877  03A7  390F               	andlw	15
   878  03A8  3A01               	xorlw	1
   879  03A9  1D03               	skipz
   880  03AA  2BAC               	goto	u173_21
   881  03AB  2BAD               	goto	u173_20
   882  03AC                     u173_21:
   883  03AC  2C0B               	goto	i1l1626
   884  03AD                     u173_20:
   885  03AD                     i1l1624:
   886                           
   887                           ;main.c: 72:             adc_temp = (int)((ADRESH)*((5.0/255))*100);
   888  03AD  081E               	movf	30,w	;volatile
   889  03AE  00C5               	movwf	??_isr
   890  03AF  01C6               	clrf	??_isr+1
   891  03B0  01C7               	clrf	??_isr+2
   892  03B1  01C8               	clrf	??_isr+3
   893  03B2  0848               	movf	??_isr+3,w
   894  03B3  00F3               	movwf	___xxtofl@val+3
   895  03B4  0847               	movf	??_isr+2,w
   896  03B5  00F2               	movwf	___xxtofl@val+2
   897  03B6  0846               	movf	??_isr+1,w
   898  03B7  00F1               	movwf	___xxtofl@val+1
   899  03B8  0845               	movf	??_isr,w
   900  03B9  00F0               	movwf	___xxtofl@val
   901  03BA  3001               	movlw	1
   902  03BB  120A  118A  24D2  120A  118A  	fcall	___xxtofl
   903  03C0  0873               	movf	?___xxtofl+3,w
   904  03C1  1283               	bcf	3,5	;RP0=0, select bank0
   905  03C2  1303               	bcf	3,6	;RP1=0, select bank0
   906  03C3  00A7               	movwf	___flmul@a+3
   907  03C4  0872               	movf	?___xxtofl+2,w
   908  03C5  00A6               	movwf	___flmul@a+2
   909  03C6  0871               	movf	?___xxtofl+1,w
   910  03C7  00A5               	movwf	___flmul@a+1
   911  03C8  0870               	movf	?___xxtofl,w
   912  03C9  00A4               	movwf	___flmul@a
   913  03CA  303C               	movlw	60
   914  03CB  00A3               	movwf	___flmul@b+3
   915  03CC  30A0               	movlw	160
   916  03CD  00A2               	movwf	___flmul@b+2
   917  03CE  30A0               	movlw	160
   918  03CF  00A1               	movwf	___flmul@b+1
   919  03D0  30A1               	movlw	161
   920  03D1  00A0               	movwf	___flmul@b
   921  03D2  120A  118A  2033  120A  118A  	fcall	___flmul
   922  03D7  1283               	bcf	3,5	;RP0=0, select bank0
   923  03D8  1303               	bcf	3,6	;RP1=0, select bank0
   924  03D9  0823               	movf	?___flmul+3,w
   925  03DA  00D0               	movwf	_isr$893+3
   926  03DB  0822               	movf	?___flmul+2,w
   927  03DC  00CF               	movwf	_isr$893+2
   928  03DD  0821               	movf	?___flmul+1,w
   929  03DE  00CE               	movwf	_isr$893+1
   930  03DF  0820               	movf	?___flmul,w
   931  03E0  00CD               	movwf	_isr$893
   932                           
   933                           ;main.c: 72:             adc_temp = (int)((ADRESH)*((5.0/255))*100);
   934  03E1  0850               	movf	_isr$893+3,w
   935  03E2  00A7               	movwf	___flmul@a+3
   936  03E3  084F               	movf	_isr$893+2,w
   937  03E4  00A6               	movwf	___flmul@a+2
   938  03E5  084E               	movf	_isr$893+1,w
   939  03E6  00A5               	movwf	___flmul@a+1
   940  03E7  084D               	movf	_isr$893,w
   941  03E8  00A4               	movwf	___flmul@a
   942  03E9  3042               	movlw	66
   943  03EA  00A3               	movwf	___flmul@b+3
   944  03EB  30C8               	movlw	200
   945  03EC  00A2               	movwf	___flmul@b+2
   946  03ED  3000               	movlw	0
   947  03EE  00A1               	movwf	___flmul@b+1
   948  03EF  3000               	movlw	0
   949  03F0  00A0               	movwf	___flmul@b
   950  03F1  120A  118A  2033  120A  118A  	fcall	___flmul
   951  03F6  1283               	bcf	3,5	;RP0=0, select bank0
   952  03F7  1303               	bcf	3,6	;RP1=0, select bank0
   953  03F8  0823               	movf	?___flmul+3,w
   954  03F9  00BD               	movwf	___fltol@f1+3
   955  03FA  0822               	movf	?___flmul+2,w
   956  03FB  00BC               	movwf	___fltol@f1+2
   957  03FC  0821               	movf	?___flmul+1,w
   958  03FD  00BB               	movwf	___fltol@f1+1
   959  03FE  0820               	movf	?___flmul,w
   960  03FF  00BA               	movwf	___fltol@f1
   961  0400  120A  118A  258C  120A  118A  	fcall	___fltol
   962  0405  1283               	bcf	3,5	;RP0=0, select bank0
   963  0406  1303               	bcf	3,6	;RP1=0, select bank0
   964  0407  083B               	movf	?___fltol+1,w
   965  0408  00DE               	movwf	_adc_temp+1
   966  0409  083A               	movf	?___fltol,w
   967  040A  00DD               	movwf	_adc_temp
   968  040B                     i1l1626:
   969                           
   970                           ;main.c: 74:         PIR1bits.ADIF = 0;
   971  040B  130C               	bcf	12,6	;volatile
   972  040C                     i1l1628:
   973                           
   974                           ;main.c: 77:     if (INTCONbits.T0IF)
   975  040C  1D0B               	btfss	11,2	;volatile
   976  040D  2C0F               	goto	u174_21
   977  040E  2C10               	goto	u174_20
   978  040F                     u174_21:
   979  040F  2CC5               	goto	i1l74
   980  0410                     u174_20:
   981  0410                     i1l1630:
   982                           
   983                           ;main.c: 78:     {;main.c: 79:         reset_TMR0();
   984  0410  120A  118A  27C2  120A  118A  	fcall	_reset_TMR0
   985  0415                     i1l1632:
   986                           
   987                           ;main.c: 80:         select_display();
   988  0415  120A  118A  270B  120A  118A  	fcall	_select_display
   989  041A                     i1l1634:
   990                           
   991                           ;main.c: 84:         if (adc_temp > 100)
   992  041A  1283               	bcf	3,5	;RP0=0, select bank0
   993  041B  1303               	bcf	3,6	;RP1=0, select bank0
   994  041C  085E               	movf	_adc_temp+1,w
   995  041D  3A80               	xorlw	128
   996  041E  00FF               	movwf	btemp+1
   997  041F  3080               	movlw	128
   998  0420  027F               	subwf	btemp+1,w
   999  0421  1D03               	skipz
  1000  0422  2C25               	goto	u175_25
  1001  0423  3065               	movlw	101
  1002  0424  025D               	subwf	_adc_temp,w
  1003  0425                     u175_25:
  1004  0425  1C03               	skipc
  1005  0426  2C28               	goto	u175_21
  1006  0427  2C29               	goto	u175_20
  1007  0428                     u175_21:
  1008  0428  2C54               	goto	i1l1638
  1009  0429                     u175_20:
  1010  0429                     i1l1636:
  1011                           
  1012                           ;main.c: 85:         {;main.c: 86:             decimal_counter[2] = adc_temp / 100;
  1013  0429  3064               	movlw	100
  1014  042A  00F0               	movwf	___awdiv@divisor
  1015  042B  3000               	movlw	0
  1016  042C  00F1               	movwf	___awdiv@divisor+1
  1017  042D  1283               	bcf	3,5	;RP0=0, select bank0
  1018  042E  1303               	bcf	3,6	;RP1=0, select bank0
  1019  042F  085E               	movf	_adc_temp+1,w
  1020  0430  00F3               	movwf	___awdiv@dividend+1
  1021  0431  085D               	movf	_adc_temp,w
  1022  0432  00F2               	movwf	___awdiv@dividend
  1023  0433  120A  118A  2608  120A  118A  	fcall	___awdiv
  1024  0438  0871               	movf	?___awdiv+1,w
  1025  0439  1283               	bcf	3,5	;RP0=0, select bank0
  1026  043A  1303               	bcf	3,6	;RP1=0, select bank0
  1027  043B  00DC               	movwf	_decimal_counter+5
  1028  043C  0870               	movf	?___awdiv,w
  1029  043D  00DB               	movwf	_decimal_counter+4
  1030                           
  1031                           ;main.c: 87:             adc_temp -= decimal_counter[2] * 100;
  1032  043E  085C               	movf	_decimal_counter+5,w
  1033  043F  00F1               	movwf	___wmul@multiplier+1
  1034  0440  085B               	movf	_decimal_counter+4,w
  1035  0441  00F0               	movwf	___wmul@multiplier
  1036  0442  3064               	movlw	100
  1037  0443  00F2               	movwf	___wmul@multiplicand
  1038  0444  3000               	movlw	0
  1039  0445  00F3               	movwf	___wmul@multiplicand+1
  1040  0446  120A  118A  279D  120A  118A  	fcall	___wmul
  1041  044B  0870               	movf	?___wmul,w
  1042  044C  1283               	bcf	3,5	;RP0=0, select bank0
  1043  044D  1303               	bcf	3,6	;RP1=0, select bank0
  1044  044E  02DD               	subwf	_adc_temp,f
  1045  044F  0871               	movf	?___wmul+1,w
  1046  0450  1C03               	skipc
  1047  0451  03DE               	decf	_adc_temp+1,f
  1048  0452  02DE               	subwf	_adc_temp+1,f
  1049                           
  1050                           ;main.c: 88:         }
  1051  0453  2C8D               	goto	i1l1642
  1052  0454                     i1l1638:
  1053  0454  1283               	bcf	3,5	;RP0=0, select bank0
  1054  0455  1303               	bcf	3,6	;RP1=0, select bank0
  1055  0456  085E               	movf	_adc_temp+1,w
  1056  0457  3A80               	xorlw	128
  1057  0458  00FF               	movwf	btemp+1
  1058  0459  3080               	movlw	128
  1059  045A  027F               	subwf	btemp+1,w
  1060  045B  1D03               	skipz
  1061  045C  2C5F               	goto	u176_25
  1062  045D  300B               	movlw	11
  1063  045E  025D               	subwf	_adc_temp,w
  1064  045F                     u176_25:
  1065  045F  1C03               	skipc
  1066  0460  2C62               	goto	u176_21
  1067  0461  2C63               	goto	u176_20
  1068  0462                     u176_21:
  1069  0462  2C8D               	goto	i1l1642
  1070  0463                     u176_20:
  1071  0463                     i1l1640:
  1072                           
  1073                           ;main.c: 91:         {;main.c: 92:             decimal_counter[1] = adc_temp / 10;
  1074  0463  300A               	movlw	10
  1075  0464  00F0               	movwf	___awdiv@divisor
  1076  0465  3000               	movlw	0
  1077  0466  00F1               	movwf	___awdiv@divisor+1
  1078  0467  1283               	bcf	3,5	;RP0=0, select bank0
  1079  0468  1303               	bcf	3,6	;RP1=0, select bank0
  1080  0469  085E               	movf	_adc_temp+1,w
  1081  046A  00F3               	movwf	___awdiv@dividend+1
  1082  046B  085D               	movf	_adc_temp,w
  1083  046C  00F2               	movwf	___awdiv@dividend
  1084  046D  120A  118A  2608  120A  118A  	fcall	___awdiv
  1085  0472  0871               	movf	?___awdiv+1,w
  1086  0473  1283               	bcf	3,5	;RP0=0, select bank0
  1087  0474  1303               	bcf	3,6	;RP1=0, select bank0
  1088  0475  00DA               	movwf	_decimal_counter+3
  1089  0476  0870               	movf	?___awdiv,w
  1090  0477  00D9               	movwf	_decimal_counter+2
  1091                           
  1092                           ;main.c: 93:             adc_temp -= decimal_counter[1] * 10;
  1093  0478  085A               	movf	_decimal_counter+3,w
  1094  0479  00F1               	movwf	___wmul@multiplier+1
  1095  047A  0859               	movf	_decimal_counter+2,w
  1096  047B  00F0               	movwf	___wmul@multiplier
  1097  047C  300A               	movlw	10
  1098  047D  00F2               	movwf	___wmul@multiplicand
  1099  047E  3000               	movlw	0
  1100  047F  00F3               	movwf	___wmul@multiplicand+1
  1101  0480  120A  118A  279D  120A  118A  	fcall	___wmul
  1102  0485  0870               	movf	?___wmul,w
  1103  0486  1283               	bcf	3,5	;RP0=0, select bank0
  1104  0487  1303               	bcf	3,6	;RP1=0, select bank0
  1105  0488  02DD               	subwf	_adc_temp,f
  1106  0489  0871               	movf	?___wmul+1,w
  1107  048A  1C03               	skipc
  1108  048B  03DE               	decf	_adc_temp+1,f
  1109  048C  02DE               	subwf	_adc_temp+1,f
  1110  048D                     i1l1642:
  1111                           
  1112                           ;main.c: 96:         decimal_counter[0] = adc_temp;
  1113  048D  1283               	bcf	3,5	;RP0=0, select bank0
  1114  048E  1303               	bcf	3,6	;RP1=0, select bank0
  1115  048F  085E               	movf	_adc_temp+1,w
  1116  0490  00D8               	movwf	_decimal_counter+1
  1117  0491  085D               	movf	_adc_temp,w
  1118  0492  00D7               	movwf	_decimal_counter
  1119  0493                     i1l1644:
  1120                           
  1121                           ;main.c: 100:         if (selector == 1)
  1122  0493  035F               	decf	_selector,w
  1123  0494  0460               	iorwf	_selector+1,w
  1124  0495  1D03               	btfss	3,2
  1125  0496  2C98               	goto	u177_21
  1126  0497  2C99               	goto	u177_20
  1127  0498                     u177_21:
  1128  0498  2CA3               	goto	i1l1648
  1129  0499                     u177_20:
  1130  0499                     i1l1646:
  1131                           
  1132                           ;main.c: 101:             display_table(decimal_counter[0]);
  1133  0499  0858               	movf	_decimal_counter+1,w
  1134  049A  00F1               	movwf	display_table@decimal_value+1
  1135  049B  0857               	movf	_decimal_counter,w
  1136  049C  00F0               	movwf	display_table@decimal_value
  1137  049D  120A  118A  266F  120A  118A  	fcall	_display_table
  1138  04A2  2CC4               	goto	i1l1656
  1139  04A3                     i1l1648:
  1140  04A3  3002               	movlw	2
  1141  04A4  065F               	xorwf	_selector,w
  1142  04A5  0460               	iorwf	_selector+1,w
  1143  04A6  1D03               	btfss	3,2
  1144  04A7  2CA9               	goto	u178_21
  1145  04A8  2CAA               	goto	u178_20
  1146  04A9                     u178_21:
  1147  04A9  2CB4               	goto	i1l1652
  1148  04AA                     u178_20:
  1149  04AA                     i1l1650:
  1150                           
  1151                           ;main.c: 104:             display_table(decimal_counter[1]);
  1152  04AA  085A               	movf	_decimal_counter+3,w
  1153  04AB  00F1               	movwf	display_table@decimal_value+1
  1154  04AC  0859               	movf	_decimal_counter+2,w
  1155  04AD  00F0               	movwf	display_table@decimal_value
  1156  04AE  120A  118A  266F  120A  118A  	fcall	_display_table
  1157  04B3  2CC4               	goto	i1l1656
  1158  04B4                     i1l1652:
  1159  04B4  3003               	movlw	3
  1160  04B5  065F               	xorwf	_selector,w
  1161  04B6  0460               	iorwf	_selector+1,w
  1162  04B7  1D03               	btfss	3,2
  1163  04B8  2CBA               	goto	u179_21
  1164  04B9  2CBB               	goto	u179_20
  1165  04BA                     u179_21:
  1166  04BA  2CC4               	goto	i1l1656
  1167  04BB                     u179_20:
  1168  04BB                     i1l1654:
  1169                           
  1170                           ;main.c: 107:             display_table(decimal_counter[2]);
  1171  04BB  085C               	movf	_decimal_counter+5,w
  1172  04BC  00F1               	movwf	display_table@decimal_value+1
  1173  04BD  085B               	movf	_decimal_counter+4,w
  1174  04BE  00F0               	movwf	display_table@decimal_value
  1175  04BF  120A  118A  266F  120A  118A  	fcall	_display_table
  1176  04C4                     i1l1656:
  1177                           
  1178                           ;main.c: 109:         INTCONbits.T0IF = 0;
  1179  04C4  110B               	bcf	11,2	;volatile
  1180  04C5                     i1l74:
  1181  04C5  1283               	bcf	3,5	;RP0=0, select bank0
  1182  04C6  1303               	bcf	3,6	;RP1=0, select bank0
  1183  04C7  084C               	movf	??_isr+7,w
  1184  04C8  00FF               	movwf	btemp+1
  1185  04C9  084B               	movf	??_isr+6,w
  1186  04CA  008A               	movwf	10
  1187  04CB  084A               	movf	??_isr+5,w
  1188  04CC  0084               	movwf	4
  1189  04CD  0E49               	swapf	??_isr+4,w
  1190  04CE  0083               	movwf	3
  1191  04CF  0EFE               	swapf	btemp,f
  1192  04D0  0E7E               	swapf	btemp,w
  1193  04D1  0009               	retfie
  1194  04D2                     __end_of_isr:
  1195                           
  1196                           	psect	intentry
  1197  0004                     __pintentry:	
  1198                           ;incstack = 0
  1199                           ; Regs used in _isr: [wreg-fsr0h+status,2+status,0+btemp+1+pclath+cstack]
  1200                           
  1201  0004                     interrupt_function:
  1202  007E                     saved_w	set	btemp
  1203  0004  00FE               	movwf	btemp
  1204  0005  0E03               	swapf	3,w
  1205  0006  1283               	bcf	3,5	;RP0=0, select bank0
  1206  0007  1303               	bcf	3,6	;RP1=0, select bank0
  1207  0008  00C9               	movwf	??_isr+4
  1208  0009  0804               	movf	4,w
  1209  000A  00CA               	movwf	??_isr+5
  1210  000B  080A               	movf	10,w
  1211  000C  00CB               	movwf	??_isr+6
  1212  000D  087F               	movf	btemp+1,w
  1213  000E  00CC               	movwf	??_isr+7
  1214  000F  120A  118A  2B94   	ljmp	_isr
  1215                           
  1216                           	psect	text3
  1217  070B                     __ptext3:	
  1218 ;; *************** function _select_display *****************
  1219 ;; Defined at:
  1220 ;;		line 202 in file "main.c"
  1221 ;; Parameters:    Size  Location     Type
  1222 ;;		None
  1223 ;; Auto vars:     Size  Location     Type
  1224 ;;		None
  1225 ;; Return value:  Size  Location     Type
  1226 ;;                  1    wreg      void 
  1227 ;; Registers used:
  1228 ;;		wreg, fsr0l, fsr0h, status,2, status,0, btemp+1
  1229 ;; Tracked objects:
  1230 ;;		On entry : 0/0
  1231 ;;		On exit  : 0/0
  1232 ;;		Unchanged: 0/0
  1233 ;; Data sizes:     COMMON   BANK0   BANK1   BANK3   BANK2
  1234 ;;      Params:         0       0       0       0       0
  1235 ;;      Locals:         0       0       0       0       0
  1236 ;;      Temps:          0       0       0       0       0
  1237 ;;      Totals:         0       0       0       0       0
  1238 ;;Total ram usage:        0 bytes
  1239 ;; Hardware stack levels used: 1
  1240 ;; This function calls:
  1241 ;;		Nothing
  1242 ;; This function is called by:
  1243 ;;		_isr
  1244 ;; This function uses a non-reentrant model
  1245 ;;
  1246                           
  1247  070B                     _select_display:	
  1248                           ;psect for function _select_display
  1249                           
  1250  070B                     i1l1232:	
  1251                           ;incstack = 0
  1252                           ; Regs used in _select_display: [wreg-fsr0h+status,2+status,0+btemp+1]
  1253                           
  1254                           
  1255                           ;main.c: 204:     selector++;
  1256  070B  3001               	movlw	1
  1257  070C  1283               	bcf	3,5	;RP0=0, select bank0
  1258  070D  1303               	bcf	3,6	;RP1=0, select bank0
  1259  070E  07DF               	addwf	_selector,f
  1260  070F  1803               	skipnc
  1261  0710  0AE0               	incf	_selector+1,f
  1262  0711  3000               	movlw	0
  1263  0712  07E0               	addwf	_selector+1,f
  1264  0713                     i1l1234:
  1265                           
  1266                           ;main.c: 206:     if (selector > 3)
  1267  0713  0860               	movf	_selector+1,w
  1268  0714  3A80               	xorlw	128
  1269  0715  00FF               	movwf	btemp+1
  1270  0716  3080               	movlw	128
  1271  0717  027F               	subwf	btemp+1,w
  1272  0718  1D03               	skipz
  1273  0719  2F1C               	goto	u95_25
  1274  071A  3004               	movlw	4
  1275  071B  025F               	subwf	_selector,w
  1276  071C                     u95_25:
  1277  071C  1C03               	skipc
  1278  071D  2F1F               	goto	u95_21
  1279  071E  2F20               	goto	u95_20
  1280  071F                     u95_21:
  1281  071F  2F2E               	goto	i1l1246
  1282  0720                     u95_20:
  1283  0720                     i1l1236:
  1284                           
  1285                           ;main.c: 207:         selector = 0;
  1286  0720  1283               	bcf	3,5	;RP0=0, select bank0
  1287  0721  1303               	bcf	3,6	;RP1=0, select bank0
  1288  0722  01DF               	clrf	_selector
  1289  0723  01E0               	clrf	_selector+1
  1290  0724  2F2E               	goto	i1l1246
  1291  0725                     i1l1238:
  1292                           
  1293                           ;main.c: 212:             PORTD = 4;
  1294  0725  3004               	movlw	4
  1295  0726  0088               	movwf	8	;volatile
  1296                           
  1297                           ;main.c: 213:             break;
  1298  0727  2F40               	goto	i1l101
  1299  0728                     i1l1240:
  1300                           
  1301                           ;main.c: 216:             PORTD = 2;
  1302  0728  3002               	movlw	2
  1303  0729  0088               	movwf	8	;volatile
  1304                           
  1305                           ;main.c: 217:             break;
  1306  072A  2F40               	goto	i1l101
  1307  072B                     i1l1242:
  1308                           
  1309                           ;main.c: 220:             PORTD = 1;
  1310  072B  3001               	movlw	1
  1311  072C  0088               	movwf	8	;volatile
  1312                           
  1313                           ;main.c: 221:             break;
  1314  072D  2F40               	goto	i1l101
  1315  072E                     i1l1246:
  1316                           
  1317                           ; Switch on 2 bytes has been partitioned into a top level switch of size 1, and 1 sub-sw
      +                          itches
  1318                           ; Switch size 1, requested type "simple"
  1319                           ; Number of cases is 1, Range of values is 0 to 0
  1320                           ; switch strategies available:
  1321                           ; Name         Instructions Cycles
  1322                           ; simple_byte            4     3 (average)
  1323                           ; direct_byte           11     8 (fixed)
  1324                           ; jumptable            260     6 (fixed)
  1325                           ;	Chosen strategy is simple_byte
  1326  072E  1283               	bcf	3,5	;RP0=0, select bank0
  1327  072F  1303               	bcf	3,6	;RP1=0, select bank0
  1328  0730  0860               	movf	_selector+1,w
  1329  0731  3A00               	xorlw	0	; case 0
  1330  0732  1903               	skipnz
  1331  0733  2F35               	goto	i1l1716
  1332  0734  2F40               	goto	i1l101
  1333  0735                     i1l1716:
  1334                           
  1335                           ; Switch size 1, requested type "simple"
  1336                           ; Number of cases is 3, Range of values is 1 to 3
  1337                           ; switch strategies available:
  1338                           ; Name         Instructions Cycles
  1339                           ; simple_byte           10     6 (average)
  1340                           ; direct_byte           20    11 (fixed)
  1341                           ; jumptable            263     9 (fixed)
  1342                           ;	Chosen strategy is simple_byte
  1343  0735  085F               	movf	_selector,w
  1344  0736  3A01               	xorlw	1	; case 1
  1345  0737  1903               	skipnz
  1346  0738  2F25               	goto	i1l1238
  1347  0739  3A03               	xorlw	3	; case 2
  1348  073A  1903               	skipnz
  1349  073B  2F28               	goto	i1l1240
  1350  073C  3A01               	xorlw	1	; case 3
  1351  073D  1903               	skipnz
  1352  073E  2F2B               	goto	i1l1242
  1353  073F  2F40               	goto	i1l101
  1354  0740                     i1l101:
  1355  0740  0008               	return
  1356  0741                     __end_of_select_display:
  1357                           
  1358                           	psect	text4
  1359  07C2                     __ptext4:	
  1360 ;; *************** function _reset_TMR0 *****************
  1361 ;; Defined at:
  1362 ;;		line 195 in file "main.c"
  1363 ;; Parameters:    Size  Location     Type
  1364 ;;		None
  1365 ;; Auto vars:     Size  Location     Type
  1366 ;;		None
  1367 ;; Return value:  Size  Location     Type
  1368 ;;                  1    wreg      void 
  1369 ;; Registers used:
  1370 ;;		status,2
  1371 ;; Tracked objects:
  1372 ;;		On entry : 0/0
  1373 ;;		On exit  : 0/0
  1374 ;;		Unchanged: 0/0
  1375 ;; Data sizes:     COMMON   BANK0   BANK1   BANK3   BANK2
  1376 ;;      Params:         0       0       0       0       0
  1377 ;;      Locals:         0       0       0       0       0
  1378 ;;      Temps:          0       0       0       0       0
  1379 ;;      Totals:         0       0       0       0       0
  1380 ;;Total ram usage:        0 bytes
  1381 ;; Hardware stack levels used: 1
  1382 ;; This function calls:
  1383 ;;		Nothing
  1384 ;; This function is called by:
  1385 ;;		_isr
  1386 ;; This function uses a non-reentrant model
  1387 ;;
  1388                           
  1389  07C2                     _reset_TMR0:	
  1390                           ;psect for function _reset_TMR0
  1391                           
  1392  07C2                     i1l1226:	
  1393                           ;incstack = 0
  1394                           ; Regs used in _reset_TMR0: [status,2]
  1395                           
  1396                           
  1397                           ;main.c: 197:     TMR0 = 0;
  1398  07C2  1283               	bcf	3,5	;RP0=0, select bank0
  1399  07C3  1303               	bcf	3,6	;RP1=0, select bank0
  1400  07C4  0181               	clrf	1	;volatile
  1401  07C5                     i1l1228:
  1402                           
  1403                           ;main.c: 198:     INTCONbits.T0IF = 0;
  1404  07C5  110B               	bcf	11,2	;volatile
  1405  07C6                     i1l92:
  1406  07C6  0008               	return
  1407  07C7                     __end_of_reset_TMR0:
  1408                           
  1409                           	psect	text5
  1410  066F                     __ptext5:	
  1411 ;; *************** function _display_table *****************
  1412 ;; Defined at:
  1413 ;;		line 227 in file "main.c"
  1414 ;; Parameters:    Size  Location     Type
  1415 ;;  decimal_valu    2    0[COMMON] int 
  1416 ;; Auto vars:     Size  Location     Type
  1417 ;;		None
  1418 ;; Return value:  Size  Location     Type
  1419 ;;                  1    wreg      void 
  1420 ;; Registers used:
  1421 ;;		wreg, fsr0l, fsr0h, status,2, status,0
  1422 ;; Tracked objects:
  1423 ;;		On entry : 0/0
  1424 ;;		On exit  : 0/0
  1425 ;;		Unchanged: 0/0
  1426 ;; Data sizes:     COMMON   BANK0   BANK1   BANK3   BANK2
  1427 ;;      Params:         2       0       0       0       0
  1428 ;;      Locals:         0       0       0       0       0
  1429 ;;      Temps:          0       0       0       0       0
  1430 ;;      Totals:         2       0       0       0       0
  1431 ;;Total ram usage:        2 bytes
  1432 ;; Hardware stack levels used: 1
  1433 ;; This function calls:
  1434 ;;		Nothing
  1435 ;; This function is called by:
  1436 ;;		_isr
  1437 ;; This function uses a non-reentrant model
  1438 ;;
  1439                           
  1440  066F                     _display_table:	
  1441                           ;psect for function _display_table
  1442                           
  1443  066F                     i1l1252:	
  1444                           ;incstack = 0
  1445                           ; Regs used in _display_table: [wreg-fsr0h+status,2+status,0]
  1446                           
  1447                           
  1448                           ;main.c: 227: void display_table(int decimal_value);main.c: 228: {;main.c: 229:     swit
      +                          ch (decimal_value)
  1449  066F  2EA2               	goto	i1l1276
  1450  0670                     i1l1254:
  1451                           
  1452                           ;main.c: 232:             PORTC = 63;
  1453  0670  303F               	movlw	63
  1454  0671  1283               	bcf	3,5	;RP0=0, select bank0
  1455  0672  1303               	bcf	3,6	;RP1=0, select bank0
  1456  0673  0087               	movwf	7	;volatile
  1457                           
  1458                           ;main.c: 233:             break;
  1459  0674  2EC7               	goto	i1l116
  1460  0675                     i1l1256:
  1461                           
  1462                           ;main.c: 236:             PORTC = 6;
  1463  0675  3006               	movlw	6
  1464  0676  1283               	bcf	3,5	;RP0=0, select bank0
  1465  0677  1303               	bcf	3,6	;RP1=0, select bank0
  1466  0678  0087               	movwf	7	;volatile
  1467                           
  1468                           ;main.c: 237:             break;
  1469  0679  2EC7               	goto	i1l116
  1470  067A                     i1l1258:
  1471                           
  1472                           ;main.c: 240:             PORTC = 91;
  1473  067A  305B               	movlw	91
  1474  067B  1283               	bcf	3,5	;RP0=0, select bank0
  1475  067C  1303               	bcf	3,6	;RP1=0, select bank0
  1476  067D  0087               	movwf	7	;volatile
  1477                           
  1478                           ;main.c: 241:             break;
  1479  067E  2EC7               	goto	i1l116
  1480  067F                     i1l1260:
  1481                           
  1482                           ;main.c: 244:             PORTC = 79;
  1483  067F  304F               	movlw	79
  1484  0680  1283               	bcf	3,5	;RP0=0, select bank0
  1485  0681  1303               	bcf	3,6	;RP1=0, select bank0
  1486  0682  0087               	movwf	7	;volatile
  1487                           
  1488                           ;main.c: 245:             break;
  1489  0683  2EC7               	goto	i1l116
  1490  0684                     i1l1262:
  1491                           
  1492                           ;main.c: 248:             PORTC = 102;
  1493  0684  3066               	movlw	102
  1494  0685  1283               	bcf	3,5	;RP0=0, select bank0
  1495  0686  1303               	bcf	3,6	;RP1=0, select bank0
  1496  0687  0087               	movwf	7	;volatile
  1497                           
  1498                           ;main.c: 249:             break;
  1499  0688  2EC7               	goto	i1l116
  1500  0689                     i1l1264:
  1501                           
  1502                           ;main.c: 252:             PORTC = 109;
  1503  0689  306D               	movlw	109
  1504  068A  1283               	bcf	3,5	;RP0=0, select bank0
  1505  068B  1303               	bcf	3,6	;RP1=0, select bank0
  1506  068C  0087               	movwf	7	;volatile
  1507                           
  1508                           ;main.c: 253:             break;
  1509  068D  2EC7               	goto	i1l116
  1510  068E                     i1l1266:
  1511                           
  1512                           ;main.c: 256:             PORTC = 125;
  1513  068E  307D               	movlw	125
  1514  068F  1283               	bcf	3,5	;RP0=0, select bank0
  1515  0690  1303               	bcf	3,6	;RP1=0, select bank0
  1516  0691  0087               	movwf	7	;volatile
  1517                           
  1518                           ;main.c: 257:             break;
  1519  0692  2EC7               	goto	i1l116
  1520  0693                     i1l1268:
  1521                           
  1522                           ;main.c: 260:             PORTC = 7;
  1523  0693  3007               	movlw	7
  1524  0694  1283               	bcf	3,5	;RP0=0, select bank0
  1525  0695  1303               	bcf	3,6	;RP1=0, select bank0
  1526  0696  0087               	movwf	7	;volatile
  1527                           
  1528                           ;main.c: 261:             break;
  1529  0697  2EC7               	goto	i1l116
  1530  0698                     i1l1270:
  1531                           
  1532                           ;main.c: 264:             PORTC = 127;
  1533  0698  307F               	movlw	127
  1534  0699  1283               	bcf	3,5	;RP0=0, select bank0
  1535  069A  1303               	bcf	3,6	;RP1=0, select bank0
  1536  069B  0087               	movwf	7	;volatile
  1537                           
  1538                           ;main.c: 265:             break;
  1539  069C  2EC7               	goto	i1l116
  1540  069D                     i1l1272:
  1541                           
  1542                           ;main.c: 268:             PORTC = 111;
  1543  069D  306F               	movlw	111
  1544  069E  1283               	bcf	3,5	;RP0=0, select bank0
  1545  069F  1303               	bcf	3,6	;RP1=0, select bank0
  1546  06A0  0087               	movwf	7	;volatile
  1547                           
  1548                           ;main.c: 269:             break;
  1549  06A1  2EC7               	goto	i1l116
  1550  06A2                     i1l1276:
  1551                           
  1552                           ; Switch on 2 bytes has been partitioned into a top level switch of size 1, and 1 sub-sw
      +                          itches
  1553                           ; Switch size 1, requested type "simple"
  1554                           ; Number of cases is 1, Range of values is 0 to 0
  1555                           ; switch strategies available:
  1556                           ; Name         Instructions Cycles
  1557                           ; simple_byte            4     3 (average)
  1558                           ; direct_byte           11     8 (fixed)
  1559                           ; jumptable            260     6 (fixed)
  1560                           ;	Chosen strategy is simple_byte
  1561  06A2  0871               	movf	display_table@decimal_value+1,w
  1562  06A3  3A00               	xorlw	0	; case 0
  1563  06A4  1903               	skipnz
  1564  06A5  2EA7               	goto	i1l1718
  1565  06A6  2EC7               	goto	i1l116
  1566  06A7                     i1l1718:
  1567                           
  1568                           ; Switch size 1, requested type "simple"
  1569                           ; Number of cases is 10, Range of values is 0 to 9
  1570                           ; switch strategies available:
  1571                           ; Name         Instructions Cycles
  1572                           ; simple_byte           31    16 (average)
  1573                           ; direct_byte           38     8 (fixed)
  1574                           ; jumptable            260     6 (fixed)
  1575                           ;	Chosen strategy is simple_byte
  1576  06A7  0870               	movf	display_table@decimal_value,w
  1577  06A8  3A00               	xorlw	0	; case 0
  1578  06A9  1903               	skipnz
  1579  06AA  2E70               	goto	i1l1254
  1580  06AB  3A01               	xorlw	1	; case 1
  1581  06AC  1903               	skipnz
  1582  06AD  2E75               	goto	i1l1256
  1583  06AE  3A03               	xorlw	3	; case 2
  1584  06AF  1903               	skipnz
  1585  06B0  2E7A               	goto	i1l1258
  1586  06B1  3A01               	xorlw	1	; case 3
  1587  06B2  1903               	skipnz
  1588  06B3  2E7F               	goto	i1l1260
  1589  06B4  3A07               	xorlw	7	; case 4
  1590  06B5  1903               	skipnz
  1591  06B6  2E84               	goto	i1l1262
  1592  06B7  3A01               	xorlw	1	; case 5
  1593  06B8  1903               	skipnz
  1594  06B9  2E89               	goto	i1l1264
  1595  06BA  3A03               	xorlw	3	; case 6
  1596  06BB  1903               	skipnz
  1597  06BC  2E8E               	goto	i1l1266
  1598  06BD  3A01               	xorlw	1	; case 7
  1599  06BE  1903               	skipnz
  1600  06BF  2E93               	goto	i1l1268
  1601  06C0  3A0F               	xorlw	15	; case 8
  1602  06C1  1903               	skipnz
  1603  06C2  2E98               	goto	i1l1270
  1604  06C3  3A01               	xorlw	1	; case 9
  1605  06C4  1903               	skipnz
  1606  06C5  2E9D               	goto	i1l1272
  1607  06C6  2EC7               	goto	i1l116
  1608  06C7                     i1l116:
  1609  06C7  0008               	return
  1610  06C8                     __end_of_display_table:
  1611                           
  1612                           	psect	text6
  1613  04D2                     __ptext6:	
  1614 ;; *************** function ___xxtofl *****************
  1615 ;; Defined at:
  1616 ;;		line 10 in file "/opt/microchip/xc8/v2.35/pic/sources/c90/common/xxtofl.c"
  1617 ;; Parameters:    Size  Location     Type
  1618 ;;  sign            1    wreg     unsigned char 
  1619 ;;  val             4    0[COMMON] long 
  1620 ;; Auto vars:     Size  Location     Type
  1621 ;;  sign            1    8[COMMON] unsigned char 
  1622 ;;  arg             4   10[COMMON] unsigned long 
  1623 ;;  exp             1    9[COMMON] unsigned char 
  1624 ;; Return value:  Size  Location     Type
  1625 ;;                  4    0[COMMON] unsigned char 
  1626 ;; Registers used:
  1627 ;;		wreg, status,2, status,0
  1628 ;; Tracked objects:
  1629 ;;		On entry : 0/0
  1630 ;;		On exit  : 0/0
  1631 ;;		Unchanged: 0/0
  1632 ;; Data sizes:     COMMON   BANK0   BANK1   BANK3   BANK2
  1633 ;;      Params:         4       0       0       0       0
  1634 ;;      Locals:         6       0       0       0       0
  1635 ;;      Temps:          4       0       0       0       0
  1636 ;;      Totals:        14       0       0       0       0
  1637 ;;Total ram usage:       14 bytes
  1638 ;; Hardware stack levels used: 1
  1639 ;; This function calls:
  1640 ;;		Nothing
  1641 ;; This function is called by:
  1642 ;;		_isr
  1643 ;; This function uses a non-reentrant model
  1644 ;;
  1645                           
  1646  04D2                     ___xxtofl:	
  1647                           ;psect for function ___xxtofl
  1648                           
  1649                           
  1650                           ;incstack = 0
  1651                           ; Regs used in ___xxtofl: [wreg+status,2+status,0]
  1652                           ;___xxtofl@sign stored from wreg
  1653  04D2  00F8               	movwf	___xxtofl@sign
  1654  04D3                     i1l1572:
  1655  04D3  0878               	movf	___xxtofl@sign,w
  1656  04D4  1903               	btfsc	3,2
  1657  04D5  2CD7               	goto	u157_21
  1658  04D6  2CD8               	goto	u157_20
  1659  04D7                     u157_21:
  1660  04D7  2CEC               	goto	i1l1578
  1661  04D8                     u157_20:
  1662  04D8                     i1l1574:
  1663  04D8  1FF3               	btfss	___xxtofl@val+3,7
  1664  04D9  2CDB               	goto	u158_21
  1665  04DA  2CDC               	goto	u158_20
  1666  04DB                     u158_21:
  1667  04DB  2CEC               	goto	i1l1578
  1668  04DC                     u158_20:
  1669  04DC                     i1l1576:
  1670  04DC  0970               	comf	___xxtofl@val,w
  1671  04DD  00FA               	movwf	___xxtofl@arg
  1672  04DE  0971               	comf	___xxtofl@val+1,w
  1673  04DF  00FB               	movwf	___xxtofl@arg+1
  1674  04E0  0972               	comf	___xxtofl@val+2,w
  1675  04E1  00FC               	movwf	___xxtofl@arg+2
  1676  04E2  0973               	comf	___xxtofl@val+3,w
  1677  04E3  00FD               	movwf	___xxtofl@arg+3
  1678  04E4  0AFA               	incf	___xxtofl@arg,f
  1679  04E5  1903               	skipnz
  1680  04E6  0AFB               	incf	___xxtofl@arg+1,f
  1681  04E7  1903               	skipnz
  1682  04E8  0AFC               	incf	___xxtofl@arg+2,f
  1683  04E9  1903               	skipnz
  1684  04EA  0AFD               	incf	___xxtofl@arg+3,f
  1685  04EB  2CF4               	goto	i1l635
  1686  04EC                     i1l1578:
  1687  04EC  0873               	movf	___xxtofl@val+3,w
  1688  04ED  00FD               	movwf	___xxtofl@arg+3
  1689  04EE  0872               	movf	___xxtofl@val+2,w
  1690  04EF  00FC               	movwf	___xxtofl@arg+2
  1691  04F0  0871               	movf	___xxtofl@val+1,w
  1692  04F1  00FB               	movwf	___xxtofl@arg+1
  1693  04F2  0870               	movf	___xxtofl@val,w
  1694  04F3  00FA               	movwf	___xxtofl@arg
  1695  04F4                     i1l635:
  1696  04F4  0873               	movf	___xxtofl@val+3,w
  1697  04F5  0472               	iorwf	___xxtofl@val+2,w
  1698  04F6  0471               	iorwf	___xxtofl@val+1,w
  1699  04F7  0470               	iorwf	___xxtofl@val,w
  1700  04F8  1D03               	skipz
  1701  04F9  2CFB               	goto	u159_21
  1702  04FA  2CFC               	goto	u159_20
  1703  04FB                     u159_21:
  1704  04FB  2D05               	goto	i1l1584
  1705  04FC                     u159_20:
  1706  04FC                     i1l1580:
  1707  04FC  3000               	movlw	0
  1708  04FD  00F3               	movwf	?___xxtofl+3
  1709  04FE  3000               	movlw	0
  1710  04FF  00F2               	movwf	?___xxtofl+2
  1711  0500  3000               	movlw	0
  1712  0501  00F1               	movwf	?___xxtofl+1
  1713  0502  3000               	movlw	0
  1714  0503  00F0               	movwf	?___xxtofl
  1715  0504  2D8B               	goto	i1l637
  1716  0505                     i1l1584:
  1717  0505  3096               	movlw	150
  1718  0506  00F4               	movwf	??___xxtofl
  1719  0507  0874               	movf	??___xxtofl,w
  1720  0508  00F9               	movwf	___xxtofl@exp
  1721  0509  2D17               	goto	i1l1588
  1722  050A                     i1l1586:
  1723  050A  3001               	movlw	1
  1724  050B  00F4               	movwf	??___xxtofl
  1725  050C  0874               	movf	??___xxtofl,w
  1726  050D  07F9               	addwf	___xxtofl@exp,f
  1727  050E  3001               	movlw	1
  1728  050F                     u160_25:
  1729  050F  1003               	clrc
  1730  0510  0CFD               	rrf	___xxtofl@arg+3,f
  1731  0511  0CFC               	rrf	___xxtofl@arg+2,f
  1732  0512  0CFB               	rrf	___xxtofl@arg+1,f
  1733  0513  0CFA               	rrf	___xxtofl@arg,f
  1734  0514  3EFF               	addlw	-1
  1735  0515  1D03               	skipz
  1736  0516  2D0F               	goto	u160_25
  1737  0517                     i1l1588:
  1738  0517  30FE               	movlw	254
  1739  0518  057D               	andwf	___xxtofl@arg+3,w
  1740  0519  1D03               	btfss	3,2
  1741  051A  2D1C               	goto	u161_21
  1742  051B  2D1D               	goto	u161_20
  1743  051C                     u161_21:
  1744  051C  2D0A               	goto	i1l1586
  1745  051D                     u161_20:
  1746  051D  2D39               	goto	i1l641
  1747  051E                     i1l1590:
  1748  051E  3001               	movlw	1
  1749  051F  00F4               	movwf	??___xxtofl
  1750  0520  0874               	movf	??___xxtofl,w
  1751  0521  07F9               	addwf	___xxtofl@exp,f
  1752  0522                     i1l1592:
  1753  0522  3001               	movlw	1
  1754  0523  07FA               	addwf	___xxtofl@arg,f
  1755  0524  3000               	movlw	0
  1756  0525  1803               	skipnc
  1757  0526  3001               	movlw	1
  1758  0527  07FB               	addwf	___xxtofl@arg+1,f
  1759  0528  3000               	movlw	0
  1760  0529  1803               	skipnc
  1761  052A  3001               	movlw	1
  1762  052B  07FC               	addwf	___xxtofl@arg+2,f
  1763  052C  3000               	movlw	0
  1764  052D  1803               	skipnc
  1765  052E  3001               	movlw	1
  1766  052F  07FD               	addwf	___xxtofl@arg+3,f
  1767  0530                     i1l1594:
  1768  0530  3001               	movlw	1
  1769  0531                     u162_25:
  1770  0531  1003               	clrc
  1771  0532  0CFD               	rrf	___xxtofl@arg+3,f
  1772  0533  0CFC               	rrf	___xxtofl@arg+2,f
  1773  0534  0CFB               	rrf	___xxtofl@arg+1,f
  1774  0535  0CFA               	rrf	___xxtofl@arg,f
  1775  0536  3EFF               	addlw	-1
  1776  0537  1D03               	skipz
  1777  0538  2D31               	goto	u162_25
  1778  0539                     i1l641:
  1779  0539  30FF               	movlw	255
  1780  053A  057D               	andwf	___xxtofl@arg+3,w
  1781  053B  1D03               	btfss	3,2
  1782  053C  2D3E               	goto	u163_21
  1783  053D  2D3F               	goto	u163_20
  1784  053E                     u163_21:
  1785  053E  2D1E               	goto	i1l1590
  1786  053F                     u163_20:
  1787  053F  2D4B               	goto	i1l1598
  1788  0540                     i1l1596:
  1789  0540  3001               	movlw	1
  1790  0541  02F9               	subwf	___xxtofl@exp,f
  1791  0542  3001               	movlw	1
  1792  0543  00F4               	movwf	??___xxtofl
  1793  0544                     u164_25:
  1794  0544  1003               	clrc
  1795  0545  0DFA               	rlf	___xxtofl@arg,f
  1796  0546  0DFB               	rlf	___xxtofl@arg+1,f
  1797  0547  0DFC               	rlf	___xxtofl@arg+2,f
  1798  0548  0DFD               	rlf	___xxtofl@arg+3,f
  1799  0549  0BF4               	decfsz	??___xxtofl,f
  1800  054A  2D44               	goto	u164_25
  1801  054B                     i1l1598:
  1802  054B  1BFC               	btfsc	___xxtofl@arg+2,7
  1803  054C  2D4E               	goto	u165_21
  1804  054D  2D4F               	goto	u165_20
  1805  054E                     u165_21:
  1806  054E  2D55               	goto	i1l648
  1807  054F                     u165_20:
  1808  054F                     i1l1600:
  1809  054F  3002               	movlw	2
  1810  0550  0279               	subwf	___xxtofl@exp,w
  1811  0551  1803               	skipnc
  1812  0552  2D54               	goto	u166_21
  1813  0553  2D55               	goto	u166_20
  1814  0554                     u166_21:
  1815  0554  2D40               	goto	i1l1596
  1816  0555                     u166_20:
  1817  0555                     i1l648:
  1818  0555  1879               	btfsc	___xxtofl@exp,0
  1819  0556  2D58               	goto	u167_21
  1820  0557  2D59               	goto	u167_20
  1821  0558                     u167_21:
  1822  0558  2D61               	goto	i1l649
  1823  0559                     u167_20:
  1824  0559                     i1l1602:
  1825  0559  30FF               	movlw	255
  1826  055A  05FA               	andwf	___xxtofl@arg,f
  1827  055B  30FF               	movlw	255
  1828  055C  05FB               	andwf	___xxtofl@arg+1,f
  1829  055D  307F               	movlw	127
  1830  055E  05FC               	andwf	___xxtofl@arg+2,f
  1831  055F  30FF               	movlw	255
  1832  0560  05FD               	andwf	___xxtofl@arg+3,f
  1833  0561                     i1l649:
  1834  0561  1003               	clrc
  1835  0562  0CF9               	rrf	___xxtofl@exp,f
  1836  0563                     i1l1604:
  1837  0563  0879               	movf	___xxtofl@exp,w
  1838  0564  00F4               	movwf	??___xxtofl
  1839  0565  01F5               	clrf	??___xxtofl+1
  1840  0566  01F6               	clrf	??___xxtofl+2
  1841  0567  01F7               	clrf	??___xxtofl+3
  1842  0568  3018               	movlw	24
  1843  0569                     u168_25:
  1844  0569  1003               	clrc
  1845  056A  0DF4               	rlf	??___xxtofl,f
  1846  056B  0DF5               	rlf	??___xxtofl+1,f
  1847  056C  0DF6               	rlf	??___xxtofl+2,f
  1848  056D  0DF7               	rlf	??___xxtofl+3,f
  1849  056E                     u168_20:
  1850  056E  3EFF               	addlw	-1
  1851  056F  1D03               	skipz
  1852  0570  2D69               	goto	u168_25
  1853  0571  0874               	movf	??___xxtofl,w
  1854  0572  04FA               	iorwf	___xxtofl@arg,f
  1855  0573  0875               	movf	??___xxtofl+1,w
  1856  0574  04FB               	iorwf	___xxtofl@arg+1,f
  1857  0575  0876               	movf	??___xxtofl+2,w
  1858  0576  04FC               	iorwf	___xxtofl@arg+2,f
  1859  0577  0877               	movf	??___xxtofl+3,w
  1860  0578  04FD               	iorwf	___xxtofl@arg+3,f
  1861  0579                     i1l1606:
  1862  0579  0878               	movf	___xxtofl@sign,w
  1863  057A  1903               	btfsc	3,2
  1864  057B  2D7D               	goto	u169_21
  1865  057C  2D7E               	goto	u169_20
  1866  057D                     u169_21:
  1867  057D  2D83               	goto	i1l1612
  1868  057E                     u169_20:
  1869  057E                     i1l1608:
  1870  057E  1FF3               	btfss	___xxtofl@val+3,7
  1871  057F  2D81               	goto	u170_21
  1872  0580  2D82               	goto	u170_20
  1873  0581                     u170_21:
  1874  0581  2D83               	goto	i1l1612
  1875  0582                     u170_20:
  1876  0582                     i1l1610:
  1877  0582  17FD               	bsf	___xxtofl@arg+3,7
  1878  0583                     i1l1612:
  1879  0583  087D               	movf	___xxtofl@arg+3,w
  1880  0584  00F3               	movwf	?___xxtofl+3
  1881  0585  087C               	movf	___xxtofl@arg+2,w
  1882  0586  00F2               	movwf	?___xxtofl+2
  1883  0587  087B               	movf	___xxtofl@arg+1,w
  1884  0588  00F1               	movwf	?___xxtofl+1
  1885  0589  087A               	movf	___xxtofl@arg,w
  1886  058A  00F0               	movwf	?___xxtofl
  1887  058B                     i1l637:
  1888  058B  0008               	return
  1889  058C                     __end_of___xxtofl:
  1890                           
  1891                           	psect	text7
  1892  079D                     __ptext7:	
  1893 ;; *************** function ___wmul *****************
  1894 ;; Defined at:
  1895 ;;		line 15 in file "/opt/microchip/xc8/v2.35/pic/sources/c90/common/Umul16.c"
  1896 ;; Parameters:    Size  Location     Type
  1897 ;;  multiplier      2    0[COMMON] unsigned int 
  1898 ;;  multiplicand    2    2[COMMON] unsigned int 
  1899 ;; Auto vars:     Size  Location     Type
  1900 ;;  product         2    4[COMMON] unsigned int 
  1901 ;; Return value:  Size  Location     Type
  1902 ;;                  2    0[COMMON] unsigned int 
  1903 ;; Registers used:
  1904 ;;		wreg, status,2, status,0
  1905 ;; Tracked objects:
  1906 ;;		On entry : 0/0
  1907 ;;		On exit  : 0/0
  1908 ;;		Unchanged: 0/0
  1909 ;; Data sizes:     COMMON   BANK0   BANK1   BANK3   BANK2
  1910 ;;      Params:         4       0       0       0       0
  1911 ;;      Locals:         2       0       0       0       0
  1912 ;;      Temps:          0       0       0       0       0
  1913 ;;      Totals:         6       0       0       0       0
  1914 ;;Total ram usage:        6 bytes
  1915 ;; Hardware stack levels used: 1
  1916 ;; This function calls:
  1917 ;;		Nothing
  1918 ;; This function is called by:
  1919 ;;		_isr
  1920 ;; This function uses a non-reentrant model
  1921 ;;
  1922                           
  1923  079D                     ___wmul:	
  1924                           ;psect for function ___wmul
  1925                           
  1926  079D                     i1l1338:	
  1927                           ;incstack = 0
  1928                           ; Regs used in ___wmul: [wreg+status,2+status,0]
  1929                           
  1930  079D  01F4               	clrf	___wmul@product
  1931  079E  01F5               	clrf	___wmul@product+1
  1932  079F                     i1l1340:
  1933  079F  1C70               	btfss	___wmul@multiplier,0
  1934  07A0  2FA2               	goto	u96_21
  1935  07A1  2FA3               	goto	u96_20
  1936  07A2                     u96_21:
  1937  07A2  2FA9               	goto	i1l202
  1938  07A3                     u96_20:
  1939  07A3                     i1l1342:
  1940  07A3  0872               	movf	___wmul@multiplicand,w
  1941  07A4  07F4               	addwf	___wmul@product,f
  1942  07A5  1803               	skipnc
  1943  07A6  0AF5               	incf	___wmul@product+1,f
  1944  07A7  0873               	movf	___wmul@multiplicand+1,w
  1945  07A8  07F5               	addwf	___wmul@product+1,f
  1946  07A9                     i1l202:
  1947  07A9  3001               	movlw	1
  1948  07AA                     u97_25:
  1949  07AA  1003               	clrc
  1950  07AB  0DF2               	rlf	___wmul@multiplicand,f
  1951  07AC  0DF3               	rlf	___wmul@multiplicand+1,f
  1952  07AD  3EFF               	addlw	-1
  1953  07AE  1D03               	skipz
  1954  07AF  2FAA               	goto	u97_25
  1955  07B0                     i1l1344:
  1956  07B0  3001               	movlw	1
  1957  07B1                     u98_25:
  1958  07B1  1003               	clrc
  1959  07B2  0CF1               	rrf	___wmul@multiplier+1,f
  1960  07B3  0CF0               	rrf	___wmul@multiplier,f
  1961  07B4  3EFF               	addlw	-1
  1962  07B5  1D03               	skipz
  1963  07B6  2FB1               	goto	u98_25
  1964  07B7                     i1l1346:
  1965  07B7  0870               	movf	___wmul@multiplier,w
  1966  07B8  0471               	iorwf	___wmul@multiplier+1,w
  1967  07B9  1D03               	btfss	3,2
  1968  07BA  2FBC               	goto	u99_21
  1969  07BB  2FBD               	goto	u99_20
  1970  07BC                     u99_21:
  1971  07BC  2F9F               	goto	i1l1340
  1972  07BD                     u99_20:
  1973  07BD                     i1l1348:
  1974  07BD  0875               	movf	___wmul@product+1,w
  1975  07BE  00F1               	movwf	?___wmul+1
  1976  07BF  0874               	movf	___wmul@product,w
  1977  07C0  00F0               	movwf	?___wmul
  1978  07C1                     i1l204:
  1979  07C1  0008               	return
  1980  07C2                     __end_of___wmul:
  1981                           
  1982                           	psect	text8
  1983  058C                     __ptext8:	
  1984 ;; *************** function ___fltol *****************
  1985 ;; Defined at:
  1986 ;;		line 43 in file "/opt/microchip/xc8/v2.35/pic/sources/c90/common/fltol.c"
  1987 ;; Parameters:    Size  Location     Type
  1988 ;;  f1              4   26[BANK0 ] unsigned int 
  1989 ;; Auto vars:     Size  Location     Type
  1990 ;;  exp1            1   36[BANK0 ] unsigned char 
  1991 ;;  sign1           1   35[BANK0 ] unsigned char 
  1992 ;; Return value:  Size  Location     Type
  1993 ;;                  4   26[BANK0 ] long 
  1994 ;; Registers used:
  1995 ;;		wreg, status,2, status,0
  1996 ;; Tracked objects:
  1997 ;;		On entry : 0/0
  1998 ;;		On exit  : 0/0
  1999 ;;		Unchanged: 0/0
  2000 ;; Data sizes:     COMMON   BANK0   BANK1   BANK3   BANK2
  2001 ;;      Params:         0       4       0       0       0
  2002 ;;      Locals:         0       2       0       0       0
  2003 ;;      Temps:          0       5       0       0       0
  2004 ;;      Totals:         0      11       0       0       0
  2005 ;;Total ram usage:       11 bytes
  2006 ;; Hardware stack levels used: 1
  2007 ;; This function calls:
  2008 ;;		Nothing
  2009 ;; This function is called by:
  2010 ;;		_isr
  2011 ;; This function uses a non-reentrant model
  2012 ;;
  2013                           
  2014  058C                     ___fltol:	
  2015                           ;psect for function ___fltol
  2016                           
  2017  058C                     i1l1396:	
  2018                           ;incstack = 0
  2019                           ; Regs used in ___fltol: [wreg+status,2+status,0]
  2020                           
  2021  058C  1003               	clrc
  2022  058D  1283               	bcf	3,5	;RP0=0, select bank0
  2023  058E  1303               	bcf	3,6	;RP1=0, select bank0
  2024  058F  0D3C               	rlf	___fltol@f1+2,w
  2025  0590  0D3D               	rlf	___fltol@f1+3,w
  2026  0591  00BE               	movwf	??___fltol
  2027  0592  083E               	movf	??___fltol,w
  2028  0593  00C4               	movwf	___fltol@exp1
  2029  0594  0844               	movf	___fltol@exp1,w
  2030  0595  1D03               	btfss	3,2
  2031  0596  2D98               	goto	u110_21
  2032  0597  2D99               	goto	u110_20
  2033  0598                     u110_21:
  2034  0598  2DA2               	goto	i1l1402
  2035  0599                     u110_20:
  2036  0599                     i1l1398:
  2037  0599  3000               	movlw	0
  2038  059A  00BD               	movwf	?___fltol+3
  2039  059B  3000               	movlw	0
  2040  059C  00BC               	movwf	?___fltol+2
  2041  059D  3000               	movlw	0
  2042  059E  00BB               	movwf	?___fltol+1
  2043  059F  3000               	movlw	0
  2044  05A0  00BA               	movwf	?___fltol
  2045  05A1  2E07               	goto	i1l388
  2046  05A2                     i1l1402:
  2047  05A2  083A               	movf	___fltol@f1,w
  2048  05A3  00BE               	movwf	??___fltol
  2049  05A4  083B               	movf	___fltol@f1+1,w
  2050  05A5  00BF               	movwf	??___fltol+1
  2051  05A6  083C               	movf	___fltol@f1+2,w
  2052  05A7  00C0               	movwf	??___fltol+2
  2053  05A8  083D               	movf	___fltol@f1+3,w
  2054  05A9  00C1               	movwf	??___fltol+3
  2055  05AA  301F               	movlw	31
  2056  05AB                     u111_25:
  2057  05AB  1003               	clrc
  2058  05AC  0CC1               	rrf	??___fltol+3,f
  2059  05AD  0CC0               	rrf	??___fltol+2,f
  2060  05AE  0CBF               	rrf	??___fltol+1,f
  2061  05AF  0CBE               	rrf	??___fltol,f
  2062  05B0                     u111_20:
  2063  05B0  3EFF               	addlw	-1
  2064  05B1  1D03               	skipz
  2065  05B2  2DAB               	goto	u111_25
  2066  05B3  083E               	movf	??___fltol,w
  2067  05B4  00C2               	movwf	??___fltol+4
  2068  05B5  0842               	movf	??___fltol+4,w
  2069  05B6  00C3               	movwf	___fltol@sign1
  2070  05B7                     i1l1404:
  2071  05B7  17BC               	bsf	___fltol@f1+2,7
  2072  05B8                     i1l1406:
  2073  05B8  30FF               	movlw	255
  2074  05B9  05BA               	andwf	___fltol@f1,f
  2075  05BA  30FF               	movlw	255
  2076  05BB  05BB               	andwf	___fltol@f1+1,f
  2077  05BC  30FF               	movlw	255
  2078  05BD  05BC               	andwf	___fltol@f1+2,f
  2079  05BE  3000               	movlw	0
  2080  05BF  05BD               	andwf	___fltol@f1+3,f
  2081  05C0                     i1l1408:
  2082  05C0  3096               	movlw	150
  2083  05C1  02C4               	subwf	___fltol@exp1,f
  2084  05C2                     i1l1410:
  2085  05C2  1FC4               	btfss	___fltol@exp1,7
  2086  05C3  2DC5               	goto	u112_21
  2087  05C4  2DC6               	goto	u112_20
  2088  05C5                     u112_21:
  2089  05C5  2DE0               	goto	i1l1420
  2090  05C6                     u112_20:
  2091  05C6                     i1l1412:
  2092  05C6  0844               	movf	___fltol@exp1,w
  2093  05C7  3A80               	xorlw	128
  2094  05C8  3E97               	addlw	151
  2095  05C9  1803               	skipnc
  2096  05CA  2DCC               	goto	u113_21
  2097  05CB  2DCD               	goto	u113_20
  2098  05CC                     u113_21:
  2099  05CC  2DCE               	goto	i1l1418
  2100  05CD                     u113_20:
  2101  05CD  2D99               	goto	i1l1398
  2102  05CE                     i1l1418:
  2103  05CE  3001               	movlw	1
  2104  05CF                     u114_25:
  2105  05CF  1003               	clrc
  2106  05D0  0CBD               	rrf	___fltol@f1+3,f
  2107  05D1  0CBC               	rrf	___fltol@f1+2,f
  2108  05D2  0CBB               	rrf	___fltol@f1+1,f
  2109  05D3  0CBA               	rrf	___fltol@f1,f
  2110  05D4  3EFF               	addlw	-1
  2111  05D5  1D03               	skipz
  2112  05D6  2DCF               	goto	u114_25
  2113  05D7  3001               	movlw	1
  2114  05D8  00BE               	movwf	??___fltol
  2115  05D9  083E               	movf	??___fltol,w
  2116  05DA  07C4               	addwf	___fltol@exp1,f
  2117  05DB  1D03               	btfss	3,2
  2118  05DC  2DDE               	goto	u115_21
  2119  05DD  2DDF               	goto	u115_20
  2120  05DE                     u115_21:
  2121  05DE  2DCE               	goto	i1l1418
  2122  05DF                     u115_20:
  2123  05DF  2DF7               	goto	i1l1428
  2124  05E0                     i1l1420:
  2125  05E0  3020               	movlw	32
  2126  05E1  0244               	subwf	___fltol@exp1,w
  2127  05E2  1C03               	skipc
  2128  05E3  2DE5               	goto	u116_21
  2129  05E4  2DE6               	goto	u116_20
  2130  05E5                     u116_21:
  2131  05E5  2DF2               	goto	i1l395
  2132  05E6                     u116_20:
  2133  05E6  2D99               	goto	i1l1398
  2134  05E7                     i1l1426:
  2135  05E7  3001               	movlw	1
  2136  05E8  00BE               	movwf	??___fltol
  2137  05E9                     u117_25:
  2138  05E9  1003               	clrc
  2139  05EA  0DBA               	rlf	___fltol@f1,f
  2140  05EB  0DBB               	rlf	___fltol@f1+1,f
  2141  05EC  0DBC               	rlf	___fltol@f1+2,f
  2142  05ED  0DBD               	rlf	___fltol@f1+3,f
  2143  05EE  0BBE               	decfsz	??___fltol,f
  2144  05EF  2DE9               	goto	u117_25
  2145  05F0  3001               	movlw	1
  2146  05F1  02C4               	subwf	___fltol@exp1,f
  2147  05F2                     i1l395:
  2148  05F2  0844               	movf	___fltol@exp1,w
  2149  05F3  1D03               	btfss	3,2
  2150  05F4  2DF6               	goto	u118_21
  2151  05F5  2DF7               	goto	u118_20
  2152  05F6                     u118_21:
  2153  05F6  2DE7               	goto	i1l1426
  2154  05F7                     u118_20:
  2155  05F7                     i1l1428:
  2156  05F7  0843               	movf	___fltol@sign1,w
  2157  05F8  1903               	btfsc	3,2
  2158  05F9  2DFB               	goto	u119_21
  2159  05FA  2DFC               	goto	u119_20
  2160  05FB                     u119_21:
  2161  05FB  2E07               	goto	i1l398
  2162  05FC                     u119_20:
  2163  05FC                     i1l1430:
  2164  05FC  09BA               	comf	___fltol@f1,f
  2165  05FD  09BB               	comf	___fltol@f1+1,f
  2166  05FE  09BC               	comf	___fltol@f1+2,f
  2167  05FF  09BD               	comf	___fltol@f1+3,f
  2168  0600  0ABA               	incf	___fltol@f1,f
  2169  0601  1903               	skipnz
  2170  0602  0ABB               	incf	___fltol@f1+1,f
  2171  0603  1903               	skipnz
  2172  0604  0ABC               	incf	___fltol@f1+2,f
  2173  0605  1903               	skipnz
  2174  0606  0ABD               	incf	___fltol@f1+3,f
  2175  0607                     i1l398:
  2176  0607                     i1l388:
  2177  0607  0008               	return
  2178  0608                     __end_of___fltol:
  2179                           
  2180                           	psect	text9
  2181  0033                     __ptext9:	
  2182 ;; *************** function ___flmul *****************
  2183 ;; Defined at:
  2184 ;;		line 8 in file "/opt/microchip/xc8/v2.35/pic/sources/c90/common/sprcmul.c"
  2185 ;; Parameters:    Size  Location     Type
  2186 ;;  b               4    0[BANK0 ] long 
  2187 ;;  a               4    4[BANK0 ] long 
  2188 ;; Auto vars:     Size  Location     Type
  2189 ;;  prod            4   20[BANK0 ] struct .
  2190 ;;  grs             4   14[BANK0 ] unsigned long 
  2191 ;;  temp            2   24[BANK0 ] struct .
  2192 ;;  bexp            1   19[BANK0 ] unsigned char 
  2193 ;;  aexp            1   18[BANK0 ] unsigned char 
  2194 ;;  sign            1   13[BANK0 ] unsigned char 
  2195 ;; Return value:  Size  Location     Type
  2196 ;;                  4    0[BANK0 ] unsigned char 
  2197 ;; Registers used:
  2198 ;;		wreg, status,2, status,0, btemp+1, pclath, cstack
  2199 ;; Tracked objects:
  2200 ;;		On entry : 0/0
  2201 ;;		On exit  : 0/0
  2202 ;;		Unchanged: 0/0
  2203 ;; Data sizes:     COMMON   BANK0   BANK1   BANK3   BANK2
  2204 ;;      Params:         0       8       0       0       0
  2205 ;;      Locals:         0      13       0       0       0
  2206 ;;      Temps:          0       5       0       0       0
  2207 ;;      Totals:         0      26       0       0       0
  2208 ;;Total ram usage:       26 bytes
  2209 ;; Hardware stack levels used: 1
  2210 ;; Hardware stack levels required when called: 1
  2211 ;; This function calls:
  2212 ;;		__Umul8_16
  2213 ;; This function is called by:
  2214 ;;		_isr
  2215 ;; This function uses a non-reentrant model
  2216 ;;
  2217                           
  2218  0033                     ___flmul:	
  2219                           ;psect for function ___flmul
  2220                           
  2221  0033                     i1l1432:	
  2222                           ;incstack = 0
  2223                           ; Regs used in ___flmul: [wreg+status,2+status,0+btemp+1+pclath+cstack]
  2224                           
  2225  0033  1283               	bcf	3,5	;RP0=0, select bank0
  2226  0034  1303               	bcf	3,6	;RP1=0, select bank0
  2227  0035  0823               	movf	___flmul@b+3,w
  2228  0036  3980               	andlw	128
  2229  0037  00A8               	movwf	??___flmul
  2230  0038  0828               	movf	??___flmul,w
  2231  0039  00AD               	movwf	___flmul@sign
  2232  003A                     i1l1434:
  2233  003A  0823               	movf	___flmul@b+3,w
  2234  003B  00A8               	movwf	??___flmul
  2235  003C  0728               	addwf	??___flmul,w
  2236  003D  00A9               	movwf	??___flmul+1
  2237  003E  0829               	movf	??___flmul+1,w
  2238  003F  00B3               	movwf	___flmul@bexp
  2239  0040                     i1l1436:
  2240  0040  1FA2               	btfss	___flmul@b+2,7
  2241  0041  2843               	goto	u120_21
  2242  0042  2844               	goto	u120_20
  2243  0043                     u120_21:
  2244  0043  2845               	goto	i1l1440
  2245  0044                     u120_20:
  2246  0044                     i1l1438:
  2247  0044  1433               	bsf	___flmul@bexp,0
  2248  0045                     i1l1440:
  2249  0045  0833               	movf	___flmul@bexp,w
  2250  0046  1903               	btfsc	3,2
  2251  0047  2849               	goto	u121_21
  2252  0048  284A               	goto	u121_20
  2253  0049                     u121_21:
  2254  0049  2859               	goto	i1l1448
  2255  004A                     u121_20:
  2256  004A                     i1l1442:
  2257  004A  0A33               	incf	___flmul@bexp,w
  2258  004B  1D03               	btfss	3,2
  2259  004C  284E               	goto	u122_21
  2260  004D  284F               	goto	u122_20
  2261  004E                     u122_21:
  2262  004E  2857               	goto	i1l1446
  2263  004F                     u122_20:
  2264  004F                     i1l1444:
  2265  004F  3000               	movlw	0
  2266  0050  00A3               	movwf	___flmul@b+3
  2267  0051  3000               	movlw	0
  2268  0052  00A2               	movwf	___flmul@b+2
  2269  0053  3000               	movlw	0
  2270  0054  00A1               	movwf	___flmul@b+1
  2271  0055  3000               	movlw	0
  2272  0056  00A0               	movwf	___flmul@b
  2273  0057                     i1l1446:
  2274  0057  17A2               	bsf	___flmul@b+2,7
  2275  0058  2861               	goto	i1l1450
  2276  0059                     i1l1448:
  2277  0059  3000               	movlw	0
  2278  005A  00A3               	movwf	___flmul@b+3
  2279  005B  3000               	movlw	0
  2280  005C  00A2               	movwf	___flmul@b+2
  2281  005D  3000               	movlw	0
  2282  005E  00A1               	movwf	___flmul@b+1
  2283  005F  3000               	movlw	0
  2284  0060  00A0               	movwf	___flmul@b
  2285  0061                     i1l1450:
  2286  0061  0827               	movf	___flmul@a+3,w
  2287  0062  3980               	andlw	128
  2288  0063  00A8               	movwf	??___flmul
  2289  0064  0828               	movf	??___flmul,w
  2290  0065  06AD               	xorwf	___flmul@sign,f
  2291  0066                     i1l1452:
  2292  0066  0827               	movf	___flmul@a+3,w
  2293  0067  00A8               	movwf	??___flmul
  2294  0068  0728               	addwf	??___flmul,w
  2295  0069  00A9               	movwf	??___flmul+1
  2296  006A  0829               	movf	??___flmul+1,w
  2297  006B  00B2               	movwf	___flmul@aexp
  2298  006C                     i1l1454:
  2299  006C  1FA6               	btfss	___flmul@a+2,7
  2300  006D  286F               	goto	u123_21
  2301  006E  2870               	goto	u123_20
  2302  006F                     u123_21:
  2303  006F  2871               	goto	i1l1458
  2304  0070                     u123_20:
  2305  0070                     i1l1456:
  2306  0070  1432               	bsf	___flmul@aexp,0
  2307  0071                     i1l1458:
  2308  0071  0832               	movf	___flmul@aexp,w
  2309  0072  1903               	btfsc	3,2
  2310  0073  2875               	goto	u124_21
  2311  0074  2876               	goto	u124_20
  2312  0075                     u124_21:
  2313  0075  2885               	goto	i1l1466
  2314  0076                     u124_20:
  2315  0076                     i1l1460:
  2316  0076  0A32               	incf	___flmul@aexp,w
  2317  0077  1D03               	btfss	3,2
  2318  0078  287A               	goto	u125_21
  2319  0079  287B               	goto	u125_20
  2320  007A                     u125_21:
  2321  007A  2883               	goto	i1l1464
  2322  007B                     u125_20:
  2323  007B                     i1l1462:
  2324  007B  3000               	movlw	0
  2325  007C  00A7               	movwf	___flmul@a+3
  2326  007D  3000               	movlw	0
  2327  007E  00A6               	movwf	___flmul@a+2
  2328  007F  3000               	movlw	0
  2329  0080  00A5               	movwf	___flmul@a+1
  2330  0081  3000               	movlw	0
  2331  0082  00A4               	movwf	___flmul@a
  2332  0083                     i1l1464:
  2333  0083  17A6               	bsf	___flmul@a+2,7
  2334  0084  288D               	goto	i1l1468
  2335  0085                     i1l1466:
  2336  0085  3000               	movlw	0
  2337  0086  00A7               	movwf	___flmul@a+3
  2338  0087  3000               	movlw	0
  2339  0088  00A6               	movwf	___flmul@a+2
  2340  0089  3000               	movlw	0
  2341  008A  00A5               	movwf	___flmul@a+1
  2342  008B  3000               	movlw	0
  2343  008C  00A4               	movwf	___flmul@a
  2344  008D                     i1l1468:
  2345  008D  0832               	movf	___flmul@aexp,w
  2346  008E  1903               	btfsc	3,2
  2347  008F  2891               	goto	u126_21
  2348  0090  2892               	goto	u126_20
  2349  0091                     u126_21:
  2350  0091  2897               	goto	i1l1472
  2351  0092                     u126_20:
  2352  0092                     i1l1470:
  2353  0092  0833               	movf	___flmul@bexp,w
  2354  0093  1D03               	btfss	3,2
  2355  0094  2896               	goto	u127_21
  2356  0095  2897               	goto	u127_20
  2357  0096                     u127_21:
  2358  0096  28A0               	goto	i1l1476
  2359  0097                     u127_20:
  2360  0097                     i1l1472:
  2361  0097  3000               	movlw	0
  2362  0098  00A3               	movwf	?___flmul+3
  2363  0099  3000               	movlw	0
  2364  009A  00A2               	movwf	?___flmul+2
  2365  009B  3000               	movlw	0
  2366  009C  00A1               	movwf	?___flmul+1
  2367  009D  3000               	movlw	0
  2368  009E  00A0               	movwf	?___flmul
  2369  009F  2B93               	goto	i1l591
  2370  00A0                     i1l1476:
  2371  00A0  0820               	movf	___flmul@b,w
  2372  00A1  00A8               	movwf	??___flmul
  2373  00A2  0828               	movf	??___flmul,w
  2374  00A3  00F0               	movwf	__Umul8_16@multiplicand
  2375  00A4  0826               	movf	___flmul@a+2,w
  2376  00A5  120A  118A  2776  120A  118A  	fcall	__Umul8_16
  2377  00AA  0871               	movf	?__Umul8_16+1,w
  2378  00AB  1283               	bcf	3,5	;RP0=0, select bank0
  2379  00AC  1303               	bcf	3,6	;RP1=0, select bank0
  2380  00AD  00B9               	movwf	___flmul@temp+1
  2381  00AE  0870               	movf	?__Umul8_16,w
  2382  00AF  00B8               	movwf	___flmul@temp
  2383  00B0                     i1l1478:
  2384  00B0  0838               	movf	___flmul@temp,w
  2385  00B1  00A8               	movwf	??___flmul
  2386  00B2  01A9               	clrf	??___flmul+1
  2387  00B3  01AA               	clrf	??___flmul+2
  2388  00B4  01AB               	clrf	??___flmul+3
  2389  00B5  082B               	movf	??___flmul+3,w
  2390  00B6  00B1               	movwf	___flmul@grs+3
  2391  00B7  082A               	movf	??___flmul+2,w
  2392  00B8  00B0               	movwf	___flmul@grs+2
  2393  00B9  0829               	movf	??___flmul+1,w
  2394  00BA  00AF               	movwf	___flmul@grs+1
  2395  00BB  0828               	movf	??___flmul,w
  2396  00BC  00AE               	movwf	___flmul@grs
  2397  00BD                     i1l1480:
  2398  00BD  0839               	movf	___flmul@temp+1,w
  2399  00BE  00A8               	movwf	??___flmul
  2400  00BF  01A9               	clrf	??___flmul+1
  2401  00C0  01AA               	clrf	??___flmul+2
  2402  00C1  01AB               	clrf	??___flmul+3
  2403  00C2  082B               	movf	??___flmul+3,w
  2404  00C3  00B7               	movwf	___flmul@prod+3
  2405  00C4  082A               	movf	??___flmul+2,w
  2406  00C5  00B6               	movwf	___flmul@prod+2
  2407  00C6  0829               	movf	??___flmul+1,w
  2408  00C7  00B5               	movwf	___flmul@prod+1
  2409  00C8  0828               	movf	??___flmul,w
  2410  00C9  00B4               	movwf	___flmul@prod
  2411  00CA  0821               	movf	___flmul@b+1,w
  2412  00CB  00A8               	movwf	??___flmul
  2413  00CC  0828               	movf	??___flmul,w
  2414  00CD  00F0               	movwf	__Umul8_16@multiplicand
  2415  00CE  0825               	movf	___flmul@a+1,w
  2416  00CF  120A  118A  2776  120A  118A  	fcall	__Umul8_16
  2417  00D4  0871               	movf	?__Umul8_16+1,w
  2418  00D5  1283               	bcf	3,5	;RP0=0, select bank0
  2419  00D6  1303               	bcf	3,6	;RP1=0, select bank0
  2420  00D7  00B9               	movwf	___flmul@temp+1
  2421  00D8  0870               	movf	?__Umul8_16,w
  2422  00D9  00B8               	movwf	___flmul@temp
  2423  00DA                     i1l1482:
  2424  00DA  0838               	movf	___flmul@temp,w
  2425  00DB  00A8               	movwf	??___flmul
  2426  00DC  01A9               	clrf	??___flmul+1
  2427  00DD  01AA               	clrf	??___flmul+2
  2428  00DE  01AB               	clrf	??___flmul+3
  2429  00DF  0828               	movf	??___flmul,w
  2430  00E0  07AE               	addwf	___flmul@grs,f
  2431  00E1  0829               	movf	??___flmul+1,w
  2432  00E2  1103               	clrz
  2433  00E3  1803               	skipnc
  2434  00E4  3E01               	addlw	1
  2435  00E5  1903               	skipnz
  2436  00E6  28E8               	goto	u128_21
  2437  00E7  07AF               	addwf	___flmul@grs+1,f
  2438  00E8                     u128_21:
  2439  00E8  082A               	movf	??___flmul+2,w
  2440  00E9  1103               	clrz
  2441  00EA  1803               	skipnc
  2442  00EB  3E01               	addlw	1
  2443  00EC  1903               	skipnz
  2444  00ED  28EF               	goto	u128_22
  2445  00EE  07B0               	addwf	___flmul@grs+2,f
  2446  00EF                     u128_22:
  2447  00EF  082B               	movf	??___flmul+3,w
  2448  00F0  1103               	clrz
  2449  00F1  1803               	skipnc
  2450  00F2  3E01               	addlw	1
  2451  00F3  1903               	skipnz
  2452  00F4  28F6               	goto	u128_23
  2453  00F5  07B1               	addwf	___flmul@grs+3,f
  2454  00F6                     u128_23:
  2455  00F6                     i1l1484:
  2456  00F6  0839               	movf	___flmul@temp+1,w
  2457  00F7  00A8               	movwf	??___flmul
  2458  00F8  01A9               	clrf	??___flmul+1
  2459  00F9  01AA               	clrf	??___flmul+2
  2460  00FA  01AB               	clrf	??___flmul+3
  2461  00FB  0828               	movf	??___flmul,w
  2462  00FC  07B4               	addwf	___flmul@prod,f
  2463  00FD  0829               	movf	??___flmul+1,w
  2464  00FE  1103               	clrz
  2465  00FF  1803               	skipnc
  2466  0100  3E01               	addlw	1
  2467  0101  1903               	skipnz
  2468  0102  2904               	goto	u129_21
  2469  0103  07B5               	addwf	___flmul@prod+1,f
  2470  0104                     u129_21:
  2471  0104  082A               	movf	??___flmul+2,w
  2472  0105  1103               	clrz
  2473  0106  1803               	skipnc
  2474  0107  3E01               	addlw	1
  2475  0108  1903               	skipnz
  2476  0109  290B               	goto	u129_22
  2477  010A  07B6               	addwf	___flmul@prod+2,f
  2478  010B                     u129_22:
  2479  010B  082B               	movf	??___flmul+3,w
  2480  010C  1103               	clrz
  2481  010D  1803               	skipnc
  2482  010E  3E01               	addlw	1
  2483  010F  1903               	skipnz
  2484  0110  2912               	goto	u129_23
  2485  0111  07B7               	addwf	___flmul@prod+3,f
  2486  0112                     u129_23:
  2487  0112  0822               	movf	___flmul@b+2,w
  2488  0113  00A8               	movwf	??___flmul
  2489  0114  0828               	movf	??___flmul,w
  2490  0115  00F0               	movwf	__Umul8_16@multiplicand
  2491  0116  0824               	movf	___flmul@a,w
  2492  0117  120A  118A  2776  120A  118A  	fcall	__Umul8_16
  2493  011C  0871               	movf	?__Umul8_16+1,w
  2494  011D  1283               	bcf	3,5	;RP0=0, select bank0
  2495  011E  1303               	bcf	3,6	;RP1=0, select bank0
  2496  011F  00B9               	movwf	___flmul@temp+1
  2497  0120  0870               	movf	?__Umul8_16,w
  2498  0121  00B8               	movwf	___flmul@temp
  2499  0122                     i1l1486:
  2500  0122  0838               	movf	___flmul@temp,w
  2501  0123  00A8               	movwf	??___flmul
  2502  0124  01A9               	clrf	??___flmul+1
  2503  0125  01AA               	clrf	??___flmul+2
  2504  0126  01AB               	clrf	??___flmul+3
  2505  0127  0828               	movf	??___flmul,w
  2506  0128  07AE               	addwf	___flmul@grs,f
  2507  0129  0829               	movf	??___flmul+1,w
  2508  012A  1103               	clrz
  2509  012B  1803               	skipnc
  2510  012C  3E01               	addlw	1
  2511  012D  1903               	skipnz
  2512  012E  2930               	goto	u130_21
  2513  012F  07AF               	addwf	___flmul@grs+1,f
  2514  0130                     u130_21:
  2515  0130  082A               	movf	??___flmul+2,w
  2516  0131  1103               	clrz
  2517  0132  1803               	skipnc
  2518  0133  3E01               	addlw	1
  2519  0134  1903               	skipnz
  2520  0135  2937               	goto	u130_22
  2521  0136  07B0               	addwf	___flmul@grs+2,f
  2522  0137                     u130_22:
  2523  0137  082B               	movf	??___flmul+3,w
  2524  0138  1103               	clrz
  2525  0139  1803               	skipnc
  2526  013A  3E01               	addlw	1
  2527  013B  1903               	skipnz
  2528  013C  293E               	goto	u130_23
  2529  013D  07B1               	addwf	___flmul@grs+3,f
  2530  013E                     u130_23:
  2531  013E                     i1l1488:
  2532  013E  0839               	movf	___flmul@temp+1,w
  2533  013F  00A8               	movwf	??___flmul
  2534  0140  01A9               	clrf	??___flmul+1
  2535  0141  01AA               	clrf	??___flmul+2
  2536  0142  01AB               	clrf	??___flmul+3
  2537  0143  0828               	movf	??___flmul,w
  2538  0144  07B4               	addwf	___flmul@prod,f
  2539  0145  0829               	movf	??___flmul+1,w
  2540  0146  1103               	clrz
  2541  0147  1803               	skipnc
  2542  0148  3E01               	addlw	1
  2543  0149  1903               	skipnz
  2544  014A  294C               	goto	u131_21
  2545  014B  07B5               	addwf	___flmul@prod+1,f
  2546  014C                     u131_21:
  2547  014C  082A               	movf	??___flmul+2,w
  2548  014D  1103               	clrz
  2549  014E  1803               	skipnc
  2550  014F  3E01               	addlw	1
  2551  0150  1903               	skipnz
  2552  0151  2953               	goto	u131_22
  2553  0152  07B6               	addwf	___flmul@prod+2,f
  2554  0153                     u131_22:
  2555  0153  082B               	movf	??___flmul+3,w
  2556  0154  1103               	clrz
  2557  0155  1803               	skipnc
  2558  0156  3E01               	addlw	1
  2559  0157  1903               	skipnz
  2560  0158  295A               	goto	u131_23
  2561  0159  07B7               	addwf	___flmul@prod+3,f
  2562  015A                     u131_23:
  2563  015A                     i1l1490:
  2564  015A  3008               	movlw	8
  2565  015B  00A8               	movwf	??___flmul
  2566  015C                     u132_25:
  2567  015C  1003               	clrc
  2568  015D  0DAE               	rlf	___flmul@grs,f
  2569  015E  0DAF               	rlf	___flmul@grs+1,f
  2570  015F  0DB0               	rlf	___flmul@grs+2,f
  2571  0160  0DB1               	rlf	___flmul@grs+3,f
  2572  0161  0BA8               	decfsz	??___flmul,f
  2573  0162  295C               	goto	u132_25
  2574  0163                     i1l1492:
  2575  0163  0821               	movf	___flmul@b+1,w
  2576  0164  00A8               	movwf	??___flmul
  2577  0165  0828               	movf	??___flmul,w
  2578  0166  00F0               	movwf	__Umul8_16@multiplicand
  2579  0167  0824               	movf	___flmul@a,w
  2580  0168  120A  118A  2776  120A  118A  	fcall	__Umul8_16
  2581  016D  0871               	movf	?__Umul8_16+1,w
  2582  016E  1283               	bcf	3,5	;RP0=0, select bank0
  2583  016F  1303               	bcf	3,6	;RP1=0, select bank0
  2584  0170  00B9               	movwf	___flmul@temp+1
  2585  0171  0870               	movf	?__Umul8_16,w
  2586  0172  00B8               	movwf	___flmul@temp
  2587  0173                     i1l1494:
  2588  0173  0838               	movf	___flmul@temp,w
  2589  0174  00A8               	movwf	??___flmul
  2590  0175  0839               	movf	___flmul@temp+1,w
  2591  0176  00A9               	movwf	??___flmul+1
  2592  0177  01AA               	clrf	??___flmul+2
  2593  0178  01AB               	clrf	??___flmul+3
  2594  0179  0828               	movf	??___flmul,w
  2595  017A  07AE               	addwf	___flmul@grs,f
  2596  017B  0829               	movf	??___flmul+1,w
  2597  017C  1103               	clrz
  2598  017D  1803               	skipnc
  2599  017E  3E01               	addlw	1
  2600  017F  1903               	skipnz
  2601  0180  2982               	goto	u133_21
  2602  0181  07AF               	addwf	___flmul@grs+1,f
  2603  0182                     u133_21:
  2604  0182  082A               	movf	??___flmul+2,w
  2605  0183  1103               	clrz
  2606  0184  1803               	skipnc
  2607  0185  3E01               	addlw	1
  2608  0186  1903               	skipnz
  2609  0187  2989               	goto	u133_22
  2610  0188  07B0               	addwf	___flmul@grs+2,f
  2611  0189                     u133_22:
  2612  0189  082B               	movf	??___flmul+3,w
  2613  018A  1103               	clrz
  2614  018B  1803               	skipnc
  2615  018C  3E01               	addlw	1
  2616  018D  1903               	skipnz
  2617  018E  2990               	goto	u133_23
  2618  018F  07B1               	addwf	___flmul@grs+3,f
  2619  0190                     u133_23:
  2620  0190                     i1l1496:
  2621  0190  0820               	movf	___flmul@b,w
  2622  0191  00A8               	movwf	??___flmul
  2623  0192  0828               	movf	??___flmul,w
  2624  0193  00F0               	movwf	__Umul8_16@multiplicand
  2625  0194  0825               	movf	___flmul@a+1,w
  2626  0195  120A  118A  2776  120A  118A  	fcall	__Umul8_16
  2627  019A  0871               	movf	?__Umul8_16+1,w
  2628  019B  1283               	bcf	3,5	;RP0=0, select bank0
  2629  019C  1303               	bcf	3,6	;RP1=0, select bank0
  2630  019D  00B9               	movwf	___flmul@temp+1
  2631  019E  0870               	movf	?__Umul8_16,w
  2632  019F  00B8               	movwf	___flmul@temp
  2633  01A0                     i1l1498:
  2634  01A0  0838               	movf	___flmul@temp,w
  2635  01A1  00A8               	movwf	??___flmul
  2636  01A2  0839               	movf	___flmul@temp+1,w
  2637  01A3  00A9               	movwf	??___flmul+1
  2638  01A4  01AA               	clrf	??___flmul+2
  2639  01A5  01AB               	clrf	??___flmul+3
  2640  01A6  0828               	movf	??___flmul,w
  2641  01A7  07AE               	addwf	___flmul@grs,f
  2642  01A8  0829               	movf	??___flmul+1,w
  2643  01A9  1103               	clrz
  2644  01AA  1803               	skipnc
  2645  01AB  3E01               	addlw	1
  2646  01AC  1903               	skipnz
  2647  01AD  29AF               	goto	u134_21
  2648  01AE  07AF               	addwf	___flmul@grs+1,f
  2649  01AF                     u134_21:
  2650  01AF  082A               	movf	??___flmul+2,w
  2651  01B0  1103               	clrz
  2652  01B1  1803               	skipnc
  2653  01B2  3E01               	addlw	1
  2654  01B3  1903               	skipnz
  2655  01B4  29B6               	goto	u134_22
  2656  01B5  07B0               	addwf	___flmul@grs+2,f
  2657  01B6                     u134_22:
  2658  01B6  082B               	movf	??___flmul+3,w
  2659  01B7  1103               	clrz
  2660  01B8  1803               	skipnc
  2661  01B9  3E01               	addlw	1
  2662  01BA  1903               	skipnz
  2663  01BB  29BD               	goto	u134_23
  2664  01BC  07B1               	addwf	___flmul@grs+3,f
  2665  01BD                     u134_23:
  2666  01BD                     i1l1500:
  2667  01BD  3008               	movlw	8
  2668  01BE  00A8               	movwf	??___flmul
  2669  01BF                     u135_25:
  2670  01BF  1003               	clrc
  2671  01C0  0DAE               	rlf	___flmul@grs,f
  2672  01C1  0DAF               	rlf	___flmul@grs+1,f
  2673  01C2  0DB0               	rlf	___flmul@grs+2,f
  2674  01C3  0DB1               	rlf	___flmul@grs+3,f
  2675  01C4  0BA8               	decfsz	??___flmul,f
  2676  01C5  29BF               	goto	u135_25
  2677  01C6  0820               	movf	___flmul@b,w
  2678  01C7  00A8               	movwf	??___flmul
  2679  01C8  0828               	movf	??___flmul,w
  2680  01C9  00F0               	movwf	__Umul8_16@multiplicand
  2681  01CA  0824               	movf	___flmul@a,w
  2682  01CB  120A  118A  2776  120A  118A  	fcall	__Umul8_16
  2683  01D0  0871               	movf	?__Umul8_16+1,w
  2684  01D1  1283               	bcf	3,5	;RP0=0, select bank0
  2685  01D2  1303               	bcf	3,6	;RP1=0, select bank0
  2686  01D3  00B9               	movwf	___flmul@temp+1
  2687  01D4  0870               	movf	?__Umul8_16,w
  2688  01D5  00B8               	movwf	___flmul@temp
  2689  01D6                     i1l1502:
  2690  01D6  0838               	movf	___flmul@temp,w
  2691  01D7  00A8               	movwf	??___flmul
  2692  01D8  0839               	movf	___flmul@temp+1,w
  2693  01D9  00A9               	movwf	??___flmul+1
  2694  01DA  01AA               	clrf	??___flmul+2
  2695  01DB  01AB               	clrf	??___flmul+3
  2696  01DC  0828               	movf	??___flmul,w
  2697  01DD  07AE               	addwf	___flmul@grs,f
  2698  01DE  0829               	movf	??___flmul+1,w
  2699  01DF  1103               	clrz
  2700  01E0  1803               	skipnc
  2701  01E1  3E01               	addlw	1
  2702  01E2  1903               	skipnz
  2703  01E3  29E5               	goto	u136_21
  2704  01E4  07AF               	addwf	___flmul@grs+1,f
  2705  01E5                     u136_21:
  2706  01E5  082A               	movf	??___flmul+2,w
  2707  01E6  1103               	clrz
  2708  01E7  1803               	skipnc
  2709  01E8  3E01               	addlw	1
  2710  01E9  1903               	skipnz
  2711  01EA  29EC               	goto	u136_22
  2712  01EB  07B0               	addwf	___flmul@grs+2,f
  2713  01EC                     u136_22:
  2714  01EC  082B               	movf	??___flmul+3,w
  2715  01ED  1103               	clrz
  2716  01EE  1803               	skipnc
  2717  01EF  3E01               	addlw	1
  2718  01F0  1903               	skipnz
  2719  01F1  29F3               	goto	u136_23
  2720  01F2  07B1               	addwf	___flmul@grs+3,f
  2721  01F3                     u136_23:
  2722  01F3                     i1l1504:
  2723  01F3  0821               	movf	___flmul@b+1,w
  2724  01F4  00A8               	movwf	??___flmul
  2725  01F5  0828               	movf	??___flmul,w
  2726  01F6  00F0               	movwf	__Umul8_16@multiplicand
  2727  01F7  0826               	movf	___flmul@a+2,w
  2728  01F8  120A  118A  2776  120A  118A  	fcall	__Umul8_16
  2729  01FD  0871               	movf	?__Umul8_16+1,w
  2730  01FE  1283               	bcf	3,5	;RP0=0, select bank0
  2731  01FF  1303               	bcf	3,6	;RP1=0, select bank0
  2732  0200  00B9               	movwf	___flmul@temp+1
  2733  0201  0870               	movf	?__Umul8_16,w
  2734  0202  00B8               	movwf	___flmul@temp
  2735  0203  0838               	movf	___flmul@temp,w
  2736  0204  00A8               	movwf	??___flmul
  2737  0205  0839               	movf	___flmul@temp+1,w
  2738  0206  00A9               	movwf	??___flmul+1
  2739  0207  01AA               	clrf	??___flmul+2
  2740  0208  01AB               	clrf	??___flmul+3
  2741  0209  0828               	movf	??___flmul,w
  2742  020A  07B4               	addwf	___flmul@prod,f
  2743  020B  0829               	movf	??___flmul+1,w
  2744  020C  1103               	clrz
  2745  020D  1803               	skipnc
  2746  020E  3E01               	addlw	1
  2747  020F  1903               	skipnz
  2748  0210  2A12               	goto	u137_21
  2749  0211  07B5               	addwf	___flmul@prod+1,f
  2750  0212                     u137_21:
  2751  0212  082A               	movf	??___flmul+2,w
  2752  0213  1103               	clrz
  2753  0214  1803               	skipnc
  2754  0215  3E01               	addlw	1
  2755  0216  1903               	skipnz
  2756  0217  2A19               	goto	u137_22
  2757  0218  07B6               	addwf	___flmul@prod+2,f
  2758  0219                     u137_22:
  2759  0219  082B               	movf	??___flmul+3,w
  2760  021A  1103               	clrz
  2761  021B  1803               	skipnc
  2762  021C  3E01               	addlw	1
  2763  021D  1903               	skipnz
  2764  021E  2A20               	goto	u137_23
  2765  021F  07B7               	addwf	___flmul@prod+3,f
  2766  0220                     u137_23:
  2767  0220                     i1l1506:
  2768  0220  0822               	movf	___flmul@b+2,w
  2769  0221  00A8               	movwf	??___flmul
  2770  0222  0828               	movf	??___flmul,w
  2771  0223  00F0               	movwf	__Umul8_16@multiplicand
  2772  0224  0825               	movf	___flmul@a+1,w
  2773  0225  120A  118A  2776  120A  118A  	fcall	__Umul8_16
  2774  022A  0871               	movf	?__Umul8_16+1,w
  2775  022B  1283               	bcf	3,5	;RP0=0, select bank0
  2776  022C  1303               	bcf	3,6	;RP1=0, select bank0
  2777  022D  00B9               	movwf	___flmul@temp+1
  2778  022E  0870               	movf	?__Umul8_16,w
  2779  022F  00B8               	movwf	___flmul@temp
  2780  0230                     i1l1508:
  2781  0230  0838               	movf	___flmul@temp,w
  2782  0231  00A8               	movwf	??___flmul
  2783  0232  0839               	movf	___flmul@temp+1,w
  2784  0233  00A9               	movwf	??___flmul+1
  2785  0234  01AA               	clrf	??___flmul+2
  2786  0235  01AB               	clrf	??___flmul+3
  2787  0236  0828               	movf	??___flmul,w
  2788  0237  07B4               	addwf	___flmul@prod,f
  2789  0238  0829               	movf	??___flmul+1,w
  2790  0239  1103               	clrz
  2791  023A  1803               	skipnc
  2792  023B  3E01               	addlw	1
  2793  023C  1903               	skipnz
  2794  023D  2A3F               	goto	u138_21
  2795  023E  07B5               	addwf	___flmul@prod+1,f
  2796  023F                     u138_21:
  2797  023F  082A               	movf	??___flmul+2,w
  2798  0240  1103               	clrz
  2799  0241  1803               	skipnc
  2800  0242  3E01               	addlw	1
  2801  0243  1903               	skipnz
  2802  0244  2A46               	goto	u138_22
  2803  0245  07B6               	addwf	___flmul@prod+2,f
  2804  0246                     u138_22:
  2805  0246  082B               	movf	??___flmul+3,w
  2806  0247  1103               	clrz
  2807  0248  1803               	skipnc
  2808  0249  3E01               	addlw	1
  2809  024A  1903               	skipnz
  2810  024B  2A4D               	goto	u138_23
  2811  024C  07B7               	addwf	___flmul@prod+3,f
  2812  024D                     u138_23:
  2813  024D  0822               	movf	___flmul@b+2,w
  2814  024E  00A8               	movwf	??___flmul
  2815  024F  0828               	movf	??___flmul,w
  2816  0250  00F0               	movwf	__Umul8_16@multiplicand
  2817  0251  0826               	movf	___flmul@a+2,w
  2818  0252  120A  118A  2776  120A  118A  	fcall	__Umul8_16
  2819  0257  0871               	movf	?__Umul8_16+1,w
  2820  0258  1283               	bcf	3,5	;RP0=0, select bank0
  2821  0259  1303               	bcf	3,6	;RP1=0, select bank0
  2822  025A  00B9               	movwf	___flmul@temp+1
  2823  025B  0870               	movf	?__Umul8_16,w
  2824  025C  00B8               	movwf	___flmul@temp
  2825  025D                     i1l1510:
  2826  025D  0838               	movf	___flmul@temp,w
  2827  025E  00A8               	movwf	??___flmul
  2828  025F  0839               	movf	___flmul@temp+1,w
  2829  0260  00A9               	movwf	??___flmul+1
  2830  0261  01AA               	clrf	??___flmul+2
  2831  0262  01AB               	clrf	??___flmul+3
  2832  0263  3008               	movlw	8
  2833  0264                     u139_25:
  2834  0264  1003               	clrc
  2835  0265  0DA8               	rlf	??___flmul,f
  2836  0266  0DA9               	rlf	??___flmul+1,f
  2837  0267  0DAA               	rlf	??___flmul+2,f
  2838  0268  0DAB               	rlf	??___flmul+3,f
  2839  0269                     u139_20:
  2840  0269  3EFF               	addlw	-1
  2841  026A  1D03               	skipz
  2842  026B  2A64               	goto	u139_25
  2843  026C  0828               	movf	??___flmul,w
  2844  026D  07B4               	addwf	___flmul@prod,f
  2845  026E  0829               	movf	??___flmul+1,w
  2846  026F  1103               	clrz
  2847  0270  1803               	skipnc
  2848  0271  3E01               	addlw	1
  2849  0272  1903               	skipnz
  2850  0273  2A75               	goto	u140_21
  2851  0274  07B5               	addwf	___flmul@prod+1,f
  2852  0275                     u140_21:
  2853  0275  082A               	movf	??___flmul+2,w
  2854  0276  1103               	clrz
  2855  0277  1803               	skipnc
  2856  0278  3E01               	addlw	1
  2857  0279  1903               	skipnz
  2858  027A  2A7C               	goto	u140_22
  2859  027B  07B6               	addwf	___flmul@prod+2,f
  2860  027C                     u140_22:
  2861  027C  082B               	movf	??___flmul+3,w
  2862  027D  1103               	clrz
  2863  027E  1803               	skipnc
  2864  027F  3E01               	addlw	1
  2865  0280  1903               	skipnz
  2866  0281  2A83               	goto	u140_23
  2867  0282  07B7               	addwf	___flmul@prod+3,f
  2868  0283                     u140_23:
  2869  0283                     i1l1512:
  2870  0283  082E               	movf	___flmul@grs,w
  2871  0284  00A8               	movwf	??___flmul
  2872  0285  082F               	movf	___flmul@grs+1,w
  2873  0286  00A9               	movwf	??___flmul+1
  2874  0287  0830               	movf	___flmul@grs+2,w
  2875  0288  00AA               	movwf	??___flmul+2
  2876  0289  0831               	movf	___flmul@grs+3,w
  2877  028A  00AB               	movwf	??___flmul+3
  2878  028B  3018               	movlw	24
  2879  028C                     u141_25:
  2880  028C  1003               	clrc
  2881  028D  0CAB               	rrf	??___flmul+3,f
  2882  028E  0CAA               	rrf	??___flmul+2,f
  2883  028F  0CA9               	rrf	??___flmul+1,f
  2884  0290  0CA8               	rrf	??___flmul,f
  2885  0291                     u141_20:
  2886  0291  3EFF               	addlw	-1
  2887  0292  1D03               	skipz
  2888  0293  2A8C               	goto	u141_25
  2889  0294  0828               	movf	??___flmul,w
  2890  0295  07B4               	addwf	___flmul@prod,f
  2891  0296  0829               	movf	??___flmul+1,w
  2892  0297  1103               	clrz
  2893  0298  1803               	skipnc
  2894  0299  3E01               	addlw	1
  2895  029A  1903               	skipnz
  2896  029B  2A9D               	goto	u142_21
  2897  029C  07B5               	addwf	___flmul@prod+1,f
  2898  029D                     u142_21:
  2899  029D  082A               	movf	??___flmul+2,w
  2900  029E  1103               	clrz
  2901  029F  1803               	skipnc
  2902  02A0  3E01               	addlw	1
  2903  02A1  1903               	skipnz
  2904  02A2  2AA4               	goto	u142_22
  2905  02A3  07B6               	addwf	___flmul@prod+2,f
  2906  02A4                     u142_22:
  2907  02A4  082B               	movf	??___flmul+3,w
  2908  02A5  1103               	clrz
  2909  02A6  1803               	skipnc
  2910  02A7  3E01               	addlw	1
  2911  02A8  1903               	skipnz
  2912  02A9  2AAB               	goto	u142_23
  2913  02AA  07B7               	addwf	___flmul@prod+3,f
  2914  02AB                     u142_23:
  2915  02AB                     i1l1514:
  2916  02AB  3008               	movlw	8
  2917  02AC  00A8               	movwf	??___flmul
  2918  02AD                     u143_25:
  2919  02AD  1003               	clrc
  2920  02AE  0DAE               	rlf	___flmul@grs,f
  2921  02AF  0DAF               	rlf	___flmul@grs+1,f
  2922  02B0  0DB0               	rlf	___flmul@grs+2,f
  2923  02B1  0DB1               	rlf	___flmul@grs+3,f
  2924  02B2  0BA8               	decfsz	??___flmul,f
  2925  02B3  2AAD               	goto	u143_25
  2926  02B4                     i1l1516:
  2927  02B4  0833               	movf	___flmul@bexp,w
  2928  02B5  0732               	addwf	___flmul@aexp,w
  2929  02B6  00A8               	movwf	??___flmul
  2930  02B7  01A9               	clrf	??___flmul+1
  2931  02B8  0DA9               	rlf	??___flmul+1,f
  2932  02B9  0828               	movf	??___flmul,w
  2933  02BA  3E82               	addlw	130
  2934  02BB  00B8               	movwf	___flmul@temp
  2935  02BC  0829               	movf	??___flmul+1,w
  2936  02BD  1803               	skipnc
  2937  02BE  3E01               	addlw	1
  2938  02BF  3EFF               	addlw	255
  2939  02C0  00B9               	movwf	___flmul@temp+1
  2940  02C1  2ADF               	goto	i1l1528
  2941  02C2                     i1l1518:
  2942  02C2  3001               	movlw	1
  2943  02C3  00A8               	movwf	??___flmul
  2944  02C4                     u144_25:
  2945  02C4  1003               	clrc
  2946  02C5  0DB4               	rlf	___flmul@prod,f
  2947  02C6  0DB5               	rlf	___flmul@prod+1,f
  2948  02C7  0DB6               	rlf	___flmul@prod+2,f
  2949  02C8  0DB7               	rlf	___flmul@prod+3,f
  2950  02C9  0BA8               	decfsz	??___flmul,f
  2951  02CA  2AC4               	goto	u144_25
  2952  02CB                     i1l1520:
  2953  02CB  1FB1               	btfss	___flmul@grs+3,7
  2954  02CC  2ACE               	goto	u145_21
  2955  02CD  2ACF               	goto	u145_20
  2956  02CE                     u145_21:
  2957  02CE  2AD0               	goto	i1l1524
  2958  02CF                     u145_20:
  2959  02CF                     i1l1522:
  2960  02CF  1434               	bsf	___flmul@prod,0
  2961  02D0                     i1l1524:
  2962  02D0  3001               	movlw	1
  2963  02D1  00A8               	movwf	??___flmul
  2964  02D2                     u146_25:
  2965  02D2  1003               	clrc
  2966  02D3  0DAE               	rlf	___flmul@grs,f
  2967  02D4  0DAF               	rlf	___flmul@grs+1,f
  2968  02D5  0DB0               	rlf	___flmul@grs+2,f
  2969  02D6  0DB1               	rlf	___flmul@grs+3,f
  2970  02D7  0BA8               	decfsz	??___flmul,f
  2971  02D8  2AD2               	goto	u146_25
  2972  02D9                     i1l1526:
  2973  02D9  30FF               	movlw	255
  2974  02DA  07B8               	addwf	___flmul@temp,f
  2975  02DB  1803               	skipnc
  2976  02DC  0AB9               	incf	___flmul@temp+1,f
  2977  02DD  30FF               	movlw	255
  2978  02DE  07B9               	addwf	___flmul@temp+1,f
  2979  02DF                     i1l1528:
  2980  02DF  1FB6               	btfss	___flmul@prod+2,7
  2981  02E0  2AE2               	goto	u147_21
  2982  02E1  2AE3               	goto	u147_20
  2983  02E2                     u147_21:
  2984  02E2  2AC2               	goto	i1l1518
  2985  02E3                     u147_20:
  2986  02E3                     i1l1530:
  2987  02E3  01B2               	clrf	___flmul@aexp
  2988  02E4                     i1l1532:
  2989  02E4  1FB1               	btfss	___flmul@grs+3,7
  2990  02E5  2AE7               	goto	u148_21
  2991  02E6  2AE8               	goto	u148_20
  2992  02E7                     u148_21:
  2993  02E7  2B04               	goto	i1l1540
  2994  02E8                     u148_20:
  2995  02E8                     i1l1534:
  2996  02E8  30FF               	movlw	255
  2997  02E9  052E               	andwf	___flmul@grs,w
  2998  02EA  00A8               	movwf	??___flmul
  2999  02EB  30FF               	movlw	255
  3000  02EC  052F               	andwf	___flmul@grs+1,w
  3001  02ED  00A9               	movwf	??___flmul+1
  3002  02EE  30FF               	movlw	255
  3003  02EF  0530               	andwf	___flmul@grs+2,w
  3004  02F0  00AA               	movwf	??___flmul+2
  3005  02F1  307F               	movlw	127
  3006  02F2  0531               	andwf	___flmul@grs+3,w
  3007  02F3  00AB               	movwf	??___flmul+3
  3008  02F4  082B               	movf	??___flmul+3,w
  3009  02F5  042A               	iorwf	??___flmul+2,w
  3010  02F6  0429               	iorwf	??___flmul+1,w
  3011  02F7  0428               	iorwf	??___flmul,w
  3012  02F8  1903               	skipnz
  3013  02F9  2AFB               	goto	u149_21
  3014  02FA  2AFC               	goto	u149_20
  3015  02FB                     u149_21:
  3016  02FB  2AFF               	goto	i1l597
  3017  02FC                     u149_20:
  3018  02FC                     i1l1536:
  3019  02FC  01B2               	clrf	___flmul@aexp
  3020  02FD  0AB2               	incf	___flmul@aexp,f
  3021  02FE  2B04               	goto	i1l1540
  3022  02FF                     i1l597:
  3023  02FF  1C34               	btfss	___flmul@prod,0
  3024  0300  2B02               	goto	u150_21
  3025  0301  2B03               	goto	u150_20
  3026  0302                     u150_21:
  3027  0302  2B04               	goto	i1l1540
  3028  0303                     u150_20:
  3029  0303  2AFC               	goto	i1l1536
  3030  0304                     i1l1540:
  3031  0304  0832               	movf	___flmul@aexp,w
  3032  0305  1903               	btfsc	3,2
  3033  0306  2B08               	goto	u151_21
  3034  0307  2B09               	goto	u151_20
  3035  0308                     u151_21:
  3036  0308  2B3A               	goto	i1l1550
  3037  0309                     u151_20:
  3038  0309                     i1l1542:
  3039  0309  3001               	movlw	1
  3040  030A  07B4               	addwf	___flmul@prod,f
  3041  030B  3000               	movlw	0
  3042  030C  1803               	skipnc
  3043  030D  3001               	movlw	1
  3044  030E  07B5               	addwf	___flmul@prod+1,f
  3045  030F  3000               	movlw	0
  3046  0310  1803               	skipnc
  3047  0311  3001               	movlw	1
  3048  0312  07B6               	addwf	___flmul@prod+2,f
  3049  0313  3000               	movlw	0
  3050  0314  1803               	skipnc
  3051  0315  3001               	movlw	1
  3052  0316  07B7               	addwf	___flmul@prod+3,f
  3053  0317                     i1l1544:
  3054  0317  1C37               	btfss	___flmul@prod+3,0
  3055  0318  2B1A               	goto	u152_21
  3056  0319  2B1B               	goto	u152_20
  3057  031A                     u152_21:
  3058  031A  2B3A               	goto	i1l1550
  3059  031B                     u152_20:
  3060  031B                     i1l1546:
  3061  031B  0834               	movf	___flmul@prod,w
  3062  031C  00A8               	movwf	??___flmul
  3063  031D  0835               	movf	___flmul@prod+1,w
  3064  031E  00A9               	movwf	??___flmul+1
  3065  031F  0836               	movf	___flmul@prod+2,w
  3066  0320  00AA               	movwf	??___flmul+2
  3067  0321  0837               	movf	___flmul@prod+3,w
  3068  0322  00AB               	movwf	??___flmul+3
  3069  0323  3001               	movlw	1
  3070  0324  00AC               	movwf	??___flmul+4
  3071  0325                     u153_25:
  3072  0325  0D2B               	rlf	??___flmul+3,w
  3073  0326  0CAB               	rrf	??___flmul+3,f
  3074  0327  0CAA               	rrf	??___flmul+2,f
  3075  0328  0CA9               	rrf	??___flmul+1,f
  3076  0329  0CA8               	rrf	??___flmul,f
  3077  032A                     u153_20:
  3078  032A  0BAC               	decfsz	??___flmul+4,f
  3079  032B  2B25               	goto	u153_25
  3080  032C  082B               	movf	??___flmul+3,w
  3081  032D  00B7               	movwf	___flmul@prod+3
  3082  032E  082A               	movf	??___flmul+2,w
  3083  032F  00B6               	movwf	___flmul@prod+2
  3084  0330  0829               	movf	??___flmul+1,w
  3085  0331  00B5               	movwf	___flmul@prod+1
  3086  0332  0828               	movf	??___flmul,w
  3087  0333  00B4               	movwf	___flmul@prod
  3088  0334                     i1l1548:
  3089  0334  3001               	movlw	1
  3090  0335  07B8               	addwf	___flmul@temp,f
  3091  0336  1803               	skipnc
  3092  0337  0AB9               	incf	___flmul@temp+1,f
  3093  0338  3000               	movlw	0
  3094  0339  07B9               	addwf	___flmul@temp+1,f
  3095  033A                     i1l1550:
  3096  033A  0839               	movf	___flmul@temp+1,w
  3097  033B  3A80               	xorlw	128
  3098  033C  00FF               	movwf	btemp+1
  3099  033D  3080               	movlw	128
  3100  033E  027F               	subwf	btemp+1,w
  3101  033F  1D03               	skipz
  3102  0340  2B43               	goto	u154_25
  3103  0341  30FF               	movlw	255
  3104  0342  0238               	subwf	___flmul@temp,w
  3105  0343                     u154_25:
  3106  0343  1C03               	skipc
  3107  0344  2B46               	goto	u154_21
  3108  0345  2B47               	goto	u154_20
  3109  0346                     u154_21:
  3110  0346  2B52               	goto	i1l1554
  3111  0347                     u154_20:
  3112  0347                     i1l1552:
  3113  0347  307F               	movlw	127
  3114  0348  1283               	bcf	3,5	;RP0=0, select bank0
  3115  0349  1303               	bcf	3,6	;RP1=0, select bank0
  3116  034A  00B7               	movwf	___flmul@prod+3
  3117  034B  3080               	movlw	128
  3118  034C  00B6               	movwf	___flmul@prod+2
  3119  034D  3000               	movlw	0
  3120  034E  00B5               	movwf	___flmul@prod+1
  3121  034F  3000               	movlw	0
  3122  0350  00B4               	movwf	___flmul@prod
  3123  0351  2B87               	goto	i1l603
  3124  0352                     i1l1554:
  3125  0352  1283               	bcf	3,5	;RP0=0, select bank0
  3126  0353  1303               	bcf	3,6	;RP1=0, select bank0
  3127  0354  0839               	movf	___flmul@temp+1,w
  3128  0355  3A80               	xorlw	128
  3129  0356  00FF               	movwf	btemp+1
  3130  0357  3080               	movlw	128
  3131  0358  027F               	subwf	btemp+1,w
  3132  0359  1D03               	skipz
  3133  035A  2B5D               	goto	u155_25
  3134  035B  3001               	movlw	1
  3135  035C  0238               	subwf	___flmul@temp,w
  3136  035D                     u155_25:
  3137  035D  1803               	skipnc
  3138  035E  2B60               	goto	u155_21
  3139  035F  2B61               	goto	u155_20
  3140  0360                     u155_21:
  3141  0360  2B6D               	goto	i1l1560
  3142  0361                     u155_20:
  3143  0361                     i1l1556:
  3144  0361  3000               	movlw	0
  3145  0362  1283               	bcf	3,5	;RP0=0, select bank0
  3146  0363  1303               	bcf	3,6	;RP1=0, select bank0
  3147  0364  00B7               	movwf	___flmul@prod+3
  3148  0365  3000               	movlw	0
  3149  0366  00B6               	movwf	___flmul@prod+2
  3150  0367  3000               	movlw	0
  3151  0368  00B5               	movwf	___flmul@prod+1
  3152  0369  3000               	movlw	0
  3153  036A  00B4               	movwf	___flmul@prod
  3154  036B                     i1l1558:
  3155  036B  01AD               	clrf	___flmul@sign
  3156  036C  2B87               	goto	i1l603
  3157  036D                     i1l1560:
  3158  036D  1283               	bcf	3,5	;RP0=0, select bank0
  3159  036E  1303               	bcf	3,6	;RP1=0, select bank0
  3160  036F  0838               	movf	___flmul@temp,w
  3161  0370  00A8               	movwf	??___flmul
  3162  0371  0828               	movf	??___flmul,w
  3163  0372  00B3               	movwf	___flmul@bexp
  3164  0373  30FF               	movlw	255
  3165  0374  05B4               	andwf	___flmul@prod,f
  3166  0375  30FF               	movlw	255
  3167  0376  05B5               	andwf	___flmul@prod+1,f
  3168  0377  307F               	movlw	127
  3169  0378  05B6               	andwf	___flmul@prod+2,f
  3170  0379  3000               	movlw	0
  3171  037A  05B7               	andwf	___flmul@prod+3,f
  3172  037B                     i1l1562:
  3173  037B  1C33               	btfss	___flmul@bexp,0
  3174  037C  2B7E               	goto	u156_21
  3175  037D  2B7F               	goto	u156_20
  3176  037E                     u156_21:
  3177  037E  2B80               	goto	i1l1566
  3178  037F                     u156_20:
  3179  037F                     i1l1564:
  3180  037F  17B6               	bsf	___flmul@prod+2,7
  3181  0380                     i1l1566:
  3182  0380  0833               	movf	___flmul@bexp,w
  3183  0381  00A8               	movwf	??___flmul
  3184  0382  1003               	clrc
  3185  0383  0C28               	rrf	??___flmul,w
  3186  0384  00A9               	movwf	??___flmul+1
  3187  0385  0829               	movf	??___flmul+1,w
  3188  0386  00B7               	movwf	___flmul@prod+3
  3189  0387                     i1l603:
  3190  0387  082D               	movf	___flmul@sign,w
  3191  0388  00A8               	movwf	??___flmul
  3192  0389  0828               	movf	??___flmul,w
  3193  038A  04B7               	iorwf	___flmul@prod+3,f
  3194  038B                     i1l1568:
  3195  038B  0837               	movf	___flmul@prod+3,w
  3196  038C  00A3               	movwf	?___flmul+3
  3197  038D  0836               	movf	___flmul@prod+2,w
  3198  038E  00A2               	movwf	?___flmul+2
  3199  038F  0835               	movf	___flmul@prod+1,w
  3200  0390  00A1               	movwf	?___flmul+1
  3201  0391  0834               	movf	___flmul@prod,w
  3202  0392  00A0               	movwf	?___flmul
  3203  0393                     i1l591:
  3204  0393  0008               	return
  3205  0394                     __end_of___flmul:
  3206                           
  3207                           	psect	text10
  3208  0776                     __ptext10:	
  3209 ;; *************** function __Umul8_16 *****************
  3210 ;; Defined at:
  3211 ;;		line 4 in file "/opt/microchip/xc8/v2.35/pic/sources/c90/common/Umul8_16.c"
  3212 ;; Parameters:    Size  Location     Type
  3213 ;;  multiplier      1    wreg     unsigned char 
  3214 ;;  multiplicand    1    0[COMMON] unsigned char 
  3215 ;; Auto vars:     Size  Location     Type
  3216 ;;  multiplier      1    8[COMMON] unsigned char 
  3217 ;;  word_mpld       2    6[COMMON] unsigned int 
  3218 ;;  product         2    4[COMMON] unsigned int 
  3219 ;; Return value:  Size  Location     Type
  3220 ;;                  2    0[COMMON] unsigned int 
  3221 ;; Registers used:
  3222 ;;		wreg, status,2, status,0
  3223 ;; Tracked objects:
  3224 ;;		On entry : 0/0
  3225 ;;		On exit  : 0/0
  3226 ;;		Unchanged: 0/0
  3227 ;; Data sizes:     COMMON   BANK0   BANK1   BANK3   BANK2
  3228 ;;      Params:         2       0       0       0       0
  3229 ;;      Locals:         5       0       0       0       0
  3230 ;;      Temps:          2       0       0       0       0
  3231 ;;      Totals:         9       0       0       0       0
  3232 ;;Total ram usage:        9 bytes
  3233 ;; Hardware stack levels used: 1
  3234 ;; This function calls:
  3235 ;;		Nothing
  3236 ;; This function is called by:
  3237 ;;		___flmul
  3238 ;; This function uses a non-reentrant model
  3239 ;;
  3240                           
  3241  0776                     __Umul8_16:	
  3242                           ;psect for function __Umul8_16
  3243                           
  3244                           
  3245                           ;incstack = 0
  3246                           ; Regs used in __Umul8_16: [wreg+status,2+status,0]
  3247                           ;__Umul8_16@multiplier stored from wreg
  3248  0776  00F8               	movwf	__Umul8_16@multiplier
  3249  0777                     i1l1212:
  3250  0777  01F4               	clrf	__Umul8_16@product
  3251  0778  01F5               	clrf	__Umul8_16@product+1
  3252  0779                     i1l1214:
  3253  0779  0870               	movf	__Umul8_16@multiplicand,w
  3254  077A  00F2               	movwf	??__Umul8_16
  3255  077B  01F3               	clrf	??__Umul8_16+1
  3256  077C  0872               	movf	??__Umul8_16,w
  3257  077D  00F6               	movwf	__Umul8_16@word_mpld
  3258  077E  0873               	movf	??__Umul8_16+1,w
  3259  077F  00F7               	movwf	__Umul8_16@word_mpld+1
  3260  0780                     i1l1216:
  3261  0780  1C78               	btfss	__Umul8_16@multiplier,0
  3262  0781  2F83               	goto	u92_21
  3263  0782  2F84               	goto	u92_20
  3264  0783                     u92_21:
  3265  0783  2F8A               	goto	i1l610
  3266  0784                     u92_20:
  3267  0784                     i1l1218:
  3268  0784  0876               	movf	__Umul8_16@word_mpld,w
  3269  0785  07F4               	addwf	__Umul8_16@product,f
  3270  0786  1803               	skipnc
  3271  0787  0AF5               	incf	__Umul8_16@product+1,f
  3272  0788  0877               	movf	__Umul8_16@word_mpld+1,w
  3273  0789  07F5               	addwf	__Umul8_16@product+1,f
  3274  078A                     i1l610:
  3275  078A  3001               	movlw	1
  3276  078B                     u93_25:
  3277  078B  1003               	clrc
  3278  078C  0DF6               	rlf	__Umul8_16@word_mpld,f
  3279  078D  0DF7               	rlf	__Umul8_16@word_mpld+1,f
  3280  078E  3EFF               	addlw	-1
  3281  078F  1D03               	skipz
  3282  0790  2F8B               	goto	u93_25
  3283  0791  1003               	clrc
  3284  0792  0CF8               	rrf	__Umul8_16@multiplier,f
  3285  0793                     i1l1220:
  3286  0793  0878               	movf	__Umul8_16@multiplier,w
  3287  0794  1D03               	btfss	3,2
  3288  0795  2F97               	goto	u94_21
  3289  0796  2F98               	goto	u94_20
  3290  0797                     u94_21:
  3291  0797  2F80               	goto	i1l1216
  3292  0798                     u94_20:
  3293  0798                     i1l1222:
  3294  0798  0875               	movf	__Umul8_16@product+1,w
  3295  0799  00F1               	movwf	?__Umul8_16+1
  3296  079A  0874               	movf	__Umul8_16@product,w
  3297  079B  00F0               	movwf	?__Umul8_16
  3298  079C                     i1l612:
  3299  079C  0008               	return
  3300  079D                     __end_of__Umul8_16:
  3301                           
  3302                           	psect	text11
  3303  0608                     __ptext11:	
  3304 ;; *************** function ___awdiv *****************
  3305 ;; Defined at:
  3306 ;;		line 5 in file "/opt/microchip/xc8/v2.35/pic/sources/c90/common/awdiv.c"
  3307 ;; Parameters:    Size  Location     Type
  3308 ;;  divisor         2    0[COMMON] int 
  3309 ;;  dividend        2    2[COMMON] int 
  3310 ;; Auto vars:     Size  Location     Type
  3311 ;;  quotient        2    7[COMMON] int 
  3312 ;;  sign            1    6[COMMON] unsigned char 
  3313 ;;  counter         1    5[COMMON] unsigned char 
  3314 ;; Return value:  Size  Location     Type
  3315 ;;                  2    0[COMMON] int 
  3316 ;; Registers used:
  3317 ;;		wreg, status,2, status,0
  3318 ;; Tracked objects:
  3319 ;;		On entry : 0/0
  3320 ;;		On exit  : 0/0
  3321 ;;		Unchanged: 0/0
  3322 ;; Data sizes:     COMMON   BANK0   BANK1   BANK3   BANK2
  3323 ;;      Params:         4       0       0       0       0
  3324 ;;      Locals:         4       0       0       0       0
  3325 ;;      Temps:          1       0       0       0       0
  3326 ;;      Totals:         9       0       0       0       0
  3327 ;;Total ram usage:        9 bytes
  3328 ;; Hardware stack levels used: 1
  3329 ;; This function calls:
  3330 ;;		Nothing
  3331 ;; This function is called by:
  3332 ;;		_isr
  3333 ;; This function uses a non-reentrant model
  3334 ;;
  3335                           
  3336  0608                     ___awdiv:	
  3337                           ;psect for function ___awdiv
  3338                           
  3339  0608                     i1l1352:	
  3340                           ;incstack = 0
  3341                           ; Regs used in ___awdiv: [wreg+status,2+status,0]
  3342                           
  3343  0608  01F6               	clrf	___awdiv@sign
  3344  0609                     i1l1354:
  3345  0609  1FF1               	btfss	___awdiv@divisor+1,7
  3346  060A  2E0C               	goto	u100_21
  3347  060B  2E0D               	goto	u100_20
  3348  060C                     u100_21:
  3349  060C  2E14               	goto	i1l1360
  3350  060D                     u100_20:
  3351  060D                     i1l1356:
  3352  060D  09F0               	comf	___awdiv@divisor,f
  3353  060E  09F1               	comf	___awdiv@divisor+1,f
  3354  060F  0AF0               	incf	___awdiv@divisor,f
  3355  0610  1903               	skipnz
  3356  0611  0AF1               	incf	___awdiv@divisor+1,f
  3357  0612                     i1l1358:
  3358  0612  01F6               	clrf	___awdiv@sign
  3359  0613  0AF6               	incf	___awdiv@sign,f
  3360  0614                     i1l1360:
  3361  0614  1FF3               	btfss	___awdiv@dividend+1,7
  3362  0615  2E17               	goto	u101_21
  3363  0616  2E18               	goto	u101_20
  3364  0617                     u101_21:
  3365  0617  2E21               	goto	i1l1366
  3366  0618                     u101_20:
  3367  0618                     i1l1362:
  3368  0618  09F2               	comf	___awdiv@dividend,f
  3369  0619  09F3               	comf	___awdiv@dividend+1,f
  3370  061A  0AF2               	incf	___awdiv@dividend,f
  3371  061B  1903               	skipnz
  3372  061C  0AF3               	incf	___awdiv@dividend+1,f
  3373  061D                     i1l1364:
  3374  061D  3001               	movlw	1
  3375  061E  00F4               	movwf	??___awdiv
  3376  061F  0874               	movf	??___awdiv,w
  3377  0620  06F6               	xorwf	___awdiv@sign,f
  3378  0621                     i1l1366:
  3379  0621  01F7               	clrf	___awdiv@quotient
  3380  0622  01F8               	clrf	___awdiv@quotient+1
  3381  0623                     i1l1368:
  3382  0623  0870               	movf	___awdiv@divisor,w
  3383  0624  0471               	iorwf	___awdiv@divisor+1,w
  3384  0625  1903               	btfsc	3,2
  3385  0626  2E28               	goto	u102_21
  3386  0627  2E29               	goto	u102_20
  3387  0628                     u102_21:
  3388  0628  2E60               	goto	i1l1388
  3389  0629                     u102_20:
  3390  0629                     i1l1370:
  3391  0629  01F5               	clrf	___awdiv@counter
  3392  062A  0AF5               	incf	___awdiv@counter,f
  3393  062B  2E37               	goto	i1l1376
  3394  062C                     i1l1372:
  3395  062C  3001               	movlw	1
  3396  062D                     u103_25:
  3397  062D  1003               	clrc
  3398  062E  0DF0               	rlf	___awdiv@divisor,f
  3399  062F  0DF1               	rlf	___awdiv@divisor+1,f
  3400  0630  3EFF               	addlw	-1
  3401  0631  1D03               	skipz
  3402  0632  2E2D               	goto	u103_25
  3403  0633                     i1l1374:
  3404  0633  3001               	movlw	1
  3405  0634  00F4               	movwf	??___awdiv
  3406  0635  0874               	movf	??___awdiv,w
  3407  0636  07F5               	addwf	___awdiv@counter,f
  3408  0637                     i1l1376:
  3409  0637  1FF1               	btfss	___awdiv@divisor+1,7
  3410  0638  2E3A               	goto	u104_21
  3411  0639  2E3B               	goto	u104_20
  3412  063A                     u104_21:
  3413  063A  2E2C               	goto	i1l1372
  3414  063B                     u104_20:
  3415  063B                     i1l1378:
  3416  063B  3001               	movlw	1
  3417  063C                     u105_25:
  3418  063C  1003               	clrc
  3419  063D  0DF7               	rlf	___awdiv@quotient,f
  3420  063E  0DF8               	rlf	___awdiv@quotient+1,f
  3421  063F  3EFF               	addlw	-1
  3422  0640  1D03               	skipz
  3423  0641  2E3C               	goto	u105_25
  3424  0642  0871               	movf	___awdiv@divisor+1,w
  3425  0643  0273               	subwf	___awdiv@dividend+1,w
  3426  0644  1D03               	skipz
  3427  0645  2E48               	goto	u106_25
  3428  0646  0870               	movf	___awdiv@divisor,w
  3429  0647  0272               	subwf	___awdiv@dividend,w
  3430  0648                     u106_25:
  3431  0648  1C03               	skipc
  3432  0649  2E4B               	goto	u106_21
  3433  064A  2E4C               	goto	u106_20
  3434  064B                     u106_21:
  3435  064B  2E53               	goto	i1l1384
  3436  064C                     u106_20:
  3437  064C                     i1l1380:
  3438  064C  0870               	movf	___awdiv@divisor,w
  3439  064D  02F2               	subwf	___awdiv@dividend,f
  3440  064E  0871               	movf	___awdiv@divisor+1,w
  3441  064F  1C03               	skipc
  3442  0650  03F3               	decf	___awdiv@dividend+1,f
  3443  0651  02F3               	subwf	___awdiv@dividend+1,f
  3444  0652                     i1l1382:
  3445  0652  1477               	bsf	___awdiv@quotient,0
  3446  0653                     i1l1384:
  3447  0653  3001               	movlw	1
  3448  0654                     u107_25:
  3449  0654  1003               	clrc
  3450  0655  0CF1               	rrf	___awdiv@divisor+1,f
  3451  0656  0CF0               	rrf	___awdiv@divisor,f
  3452  0657  3EFF               	addlw	-1
  3453  0658  1D03               	skipz
  3454  0659  2E54               	goto	u107_25
  3455  065A                     i1l1386:
  3456  065A  3001               	movlw	1
  3457  065B  02F5               	subwf	___awdiv@counter,f
  3458  065C  1D03               	btfss	3,2
  3459  065D  2E5F               	goto	u108_21
  3460  065E  2E60               	goto	u108_20
  3461  065F                     u108_21:
  3462  065F  2E3B               	goto	i1l1378
  3463  0660                     u108_20:
  3464  0660                     i1l1388:
  3465  0660  0876               	movf	___awdiv@sign,w
  3466  0661  1903               	btfsc	3,2
  3467  0662  2E64               	goto	u109_21
  3468  0663  2E65               	goto	u109_20
  3469  0664                     u109_21:
  3470  0664  2E6A               	goto	i1l1392
  3471  0665                     u109_20:
  3472  0665                     i1l1390:
  3473  0665  09F7               	comf	___awdiv@quotient,f
  3474  0666  09F8               	comf	___awdiv@quotient+1,f
  3475  0667  0AF7               	incf	___awdiv@quotient,f
  3476  0668  1903               	skipnz
  3477  0669  0AF8               	incf	___awdiv@quotient+1,f
  3478  066A                     i1l1392:
  3479  066A  0878               	movf	___awdiv@quotient+1,w
  3480  066B  00F1               	movwf	?___awdiv+1
  3481  066C  0877               	movf	___awdiv@quotient,w
  3482  066D  00F0               	movwf	?___awdiv
  3483  066E                     i1l355:
  3484  066E  0008               	return
  3485  066F                     __end_of___awdiv:
  3486  007E                     btemp	set	126	;btemp
  3487  007E                     wtemp0	set	126
  3488                           
  3489                           	psect	idloc
  3490                           
  3491                           ;Config register IDLOC0 @ 0x2000
  3492                           ;	unspecified, using default values
  3493  2000                     	org	8192
  3494  2000  3FFF               	dw	16383
  3495                           
  3496                           ;Config register IDLOC1 @ 0x2001
  3497                           ;	unspecified, using default values
  3498  2001                     	org	8193
  3499  2001  3FFF               	dw	16383
  3500                           
  3501                           ;Config register IDLOC2 @ 0x2002
  3502                           ;	unspecified, using default values
  3503  2002                     	org	8194
  3504  2002  3FFF               	dw	16383
  3505                           
  3506                           ;Config register IDLOC3 @ 0x2003
  3507                           ;	unspecified, using default values
  3508  2003                     	org	8195
  3509  2003  3FFF               	dw	16383
  3510                           
  3511                           	psect	config
  3512                           
  3513                           ;Config register CONFIG1 @ 0x2007
  3514                           ;	Oscillator Selection bits
  3515                           ;	FOSC = INTRC_NOCLKOUT, INTOSCIO oscillator: I/O function on RA6/OSC2/CLKOUT pin, I/O f
      +                          unction on RA7/OSC1/CLKIN
  3516                           ;	Watchdog Timer Enable bit
  3517                           ;	WDTE = OFF, WDT disabled and can be enabled by SWDTEN bit of the WDTCON register
  3518                           ;	Power-up Timer Enable bit
  3519                           ;	PWRTE = OFF, PWRT disabled
  3520                           ;	RE3/MCLR pin function select bit
  3521                           ;	MCLRE = OFF, RE3/MCLR pin function is digital input, MCLR internally tied to VDD
  3522                           ;	Code Protection bit
  3523                           ;	CP = OFF, Program memory code protection is disabled
  3524                           ;	Data Code Protection bit
  3525                           ;	CPD = OFF, Data memory code protection is disabled
  3526                           ;	Brown Out Reset Selection bits
  3527                           ;	BOREN = OFF, BOR disabled
  3528                           ;	Internal External Switchover bit
  3529                           ;	IESO = OFF, Internal/External Switchover mode is disabled
  3530                           ;	Fail-Safe Clock Monitor Enabled bit
  3531                           ;	FCMEN = OFF, Fail-Safe Clock Monitor is disabled
  3532                           ;	Low Voltage Programming Enable bit
  3533                           ;	LVP = OFF, RB3 pin has digital I/O, HV on MCLR must be used for programming
  3534                           ;	In-Circuit Debugger Mode bit
  3535                           ;	DEBUG = 0x1, unprogrammed default
  3536  2007                     	org	8199
  3537  2007  20D4               	dw	8404
  3538                           
  3539                           ;Config register CONFIG2 @ 0x2008
  3540                           ;	Brown-out Reset Selection bit
  3541                           ;	BOR4V = BOR40V, Brown-out Reset set to 4.0V
  3542                           ;	Flash Program Memory Self Write Enable bits
  3543                           ;	WRT = OFF, Write protection off
  3544  2008                     	org	8200
  3545  2008  3FFF               	dw	16383

Data Sizes:
    Strings     0
    Constant    0
    Data        2
    BSS         14
    Persistent  0
    Stack       0

Auto Spaces:
    Space          Size  Autos    Used
    COMMON           14     14      14
    BANK0            80     49      65
    BANK1            80      1       1
    BANK3            96      0       0
    BANK2            96      0       0

Pointer List with Targets:

    None.

Critical Paths under _main in COMMON

    None.

Critical Paths under _isr in COMMON

    _isr->___xxtofl
    ___fltol->___xxtofl
    ___flmul->___xxtofl

Critical Paths under _main in BANK0

    None.

Critical Paths under _isr in BANK0

    _isr->___fltol
    ___fltol->___flmul

Critical Paths under _main in BANK1

    None.

Critical Paths under _isr in BANK1

    None.

Critical Paths under _main in BANK3

    None.

Critical Paths under _isr in BANK3

    None.

Critical Paths under _main in BANK2

    None.

Critical Paths under _isr in BANK2

    None.

Call Graph Tables:

 ---------------------------------------------------------------------------------
 (Depth) Function   	        Calls       Base Space   Used Autos Params    Refs
 ---------------------------------------------------------------------------------
 (0) _main                                                 1     1      0       0
                                              0 BANK1      1     1      0
                              _setup
 ---------------------------------------------------------------------------------
 (1) _setup                                                0     0      0       0
 ---------------------------------------------------------------------------------
 Estimated maximum stack depth 1
 ---------------------------------------------------------------------------------
 (Depth) Function   	        Calls       Base Space   Used Autos Params    Refs
 ---------------------------------------------------------------------------------
 (2) _isr                                                 12    12      0    4545
                                             37 BANK0     12    12      0
                            ___awdiv
                            ___flmul
                            ___fltol
                             ___wmul
                           ___xxtofl
                      _display_table
                         _reset_TMR0
                     _select_display
 ---------------------------------------------------------------------------------
 (3) _select_display                                       0     0      0       0
 ---------------------------------------------------------------------------------
 (3) _reset_TMR0                                           0     0      0       0
 ---------------------------------------------------------------------------------
 (3) _display_table                                        2     0      2     250
                                              0 COMMON     2     0      2
 ---------------------------------------------------------------------------------
 (3) ___xxtofl                                            14    10      4     398
                                              0 COMMON    14    10      4
 ---------------------------------------------------------------------------------
 (3) ___wmul                                               6     2      4     396
                                              0 COMMON     6     2      4
 ---------------------------------------------------------------------------------
 (3) ___fltol                                             11     7      4     305
                                             26 BANK0     11     7      4
                            ___flmul (ARG)
                           ___xxtofl (ARG)
 ---------------------------------------------------------------------------------
 (3) ___flmul                                             26    18      8    2569
                                              0 BANK0     26    18      8
                          __Umul8_16
                           ___xxtofl (ARG)
 ---------------------------------------------------------------------------------
 (4) __Umul8_16                                            9     7      2     799
                                              0 COMMON     9     7      2
 ---------------------------------------------------------------------------------
 (3) ___awdiv                                              9     5      4     604
                                              0 COMMON     9     5      4
 ---------------------------------------------------------------------------------
 Estimated maximum stack depth 4
 ---------------------------------------------------------------------------------

 Call Graph Graphs:

 _main (ROOT)
   _setup

 _isr (ROOT)
   ___awdiv
   ___flmul
     __Umul8_16
     ___xxtofl (ARG)
   ___fltol
     ___flmul (ARG)
     ___xxtofl (ARG)
   ___wmul
   ___xxtofl
   _display_table
   _reset_TMR0
   _select_display

 Address spaces:
Name               Size   Autos  Total    Cost      Usage
BANK3               60      0       0       9        0.0%
BITBANK3            60      0       0       8        0.0%
SFR3                 0      0       0       4        0.0%
BITSFR3              0      0       0       4        0.0%
BANK2               60      0       0      11        0.0%
BITBANK2            60      0       0      10        0.0%
SFR2                 0      0       0       5        0.0%
BITSFR2              0      0       0       5        0.0%
BANK1               50      1       1       7        1.2%
BITBANK1            50      0       0       6        0.0%
SFR1                 0      0       0       2        0.0%
BITSFR1              0      0       0       2        0.0%
BANK0               50     31      41       5       81.2%
BITBANK0            50      0       0       4        0.0%
SFR0                 0      0       0       1        0.0%
BITSFR0              0      0       0       1        0.0%
COMMON               E      E       E       1      100.0%
BITCOMMON            E      0       0       0        0.0%
CODE                 0      0       0       0        0.0%
DATA                 0      0      50      12        0.0%
ABS                  0      0      50       3        0.0%
NULL                 0      0       0       0        0.0%
STACK                0      0       0       2        0.0%
EEDATA             100      0       0       0        0.0%


Microchip Technology PIC Macro Assembler V2.35 build 20211206165544 
Symbol Table                                                                                   Sat Apr 23 23:34:59 2022

                        l89 0775                ___awdiv@sign 0076         ___wmul@multiplicand 0072  
       __Umul8_16@word_mpld 0076                         _isr 0394             _decimal_counter 0057  
                       fsr0 0004                ___flmul@aexp 0032                ___flmul@bexp 0033  
              ___flmul@sign 002D                ___flmul@temp 0038                ___flmul@prod 0034  
              ___fltol@exp1 0044                        l1300 075B                        l1310 0762  
                      l1302 075E                        l1320 076B                        l1312 0763  
                      l1304 075F                        l1330 0772                        l1322 076C  
                      l1314 0766                        l1306 0760                        l1332 0773  
                      l1324 076D                        l1316 0767                        l1308 0761  
                      l1334 0774                        l1326 076E                        l1318 0768  
                      l1328 076F                        l1290 074D                        l1282 0741  
                      l1292 074F                        l1284 0745                        l1294 0750  
                      l1286 0746                        l1296 0751                        l1288 074C  
                      l1298 0752                        l1660 06CD                        l1670 06F9  
                      l1662 06D4                        l1672 06FD                        l1664 06DA  
                      l1674 0704                        l1666 06E5                        l1658 06C8  
                      l1668 06EC                        ?_isr 0070                        u1800 06DA  
                      u1801 06D9                        u1810 06E5                        u1811 06E4  
                      u1820 06F9                        u1821 06F8                        u1837 06D1  
                      u1847 0701                        i1l74 04C5                        i1l92 07C6  
            ?_display_table 0070                        _TMR0 0001                        _main 06C8  
                      btemp 007E                        start 0012                       ??_isr 0045  
             ___fltol@sign1 0043                       ?_main 0070             __end_of___awdiv 066F  
           __end_of___flmul 0394             __end_of___fltol 0608                       _ANSEL 0188  
           ___awdiv@divisor 0070                       i1l101 0740                       i1l202 07A9  
                     i1l204 07C1                       i1l116 06C7                       i1l610 078A  
                     i1l355 066E                       i1l603 0387                       i1l612 079C  
                     i1l641 0539                       i1l395 05F2                       i1l635 04F4  
                     i1l388 0607                       i1l637 058B                       i1l398 0607  
                     i1l591 0393                       i1l648 0555                       i1l649 0561  
                     i1l597 02FF             ___awdiv@counter 0075                       _PORTA 0005  
                     _PORTB 0006                       _PORTC 0007                       _PORTD 0008  
                     _TRISA 0085                       _TRISB 0086                       _TRISC 0087  
                     _TRISD 0088                       u92_20 0784                       u92_21 0783  
                     u93_25 078B                       u94_20 0798                       u94_21 0797  
                     u95_20 0720                       u95_21 071F                       u95_25 071C  
                     u96_20 07A3                       u96_21 07A2                       u97_25 07AA  
                     u98_25 07B1                       u99_20 07BD                       u99_21 07BC  
                     _setup 0741                       pclath 000A                       status 0003  
                     wtemp0 007E             __initialization 0015                __end_of_main 070B  
                    ??_main 00A0             ??_display_table 0072                      _ADRESH 001E  
          ___awdiv@dividend 0072                      ?_setup 0070                      _ANSELH 0189  
                    u100_20 060D                      u100_21 060C                      u101_20 0618  
                    u101_21 0617                      u102_20 0629                      u110_20 0599  
                    u102_21 0628                      u110_21 0598                      i1l1220 0793  
                    i1l1212 0777                      i1l1222 0798                      i1l1214 0779  
                    i1l1216 0780                      u111_20 05B0                      i1l1240 0728  
                    i1l1232 070B                      i1l1218 0784                      i1l1410 05C2  
                    i1l1402 05A2                      i1l1226 07C2                      i1l1242 072B  
                    i1l1234 0713                      i1l1500 01BD                      i1l1412 05C6  
                    i1l1420 05E0                      i1l1404 05B7                      i1l1340 079F  
                    i1l1260 067F                      i1l1252 066F                      i1l1228 07C5  
                    i1l1236 0720                      u103_25 062D                      u111_25 05AB  
                    i1l1510 025D                      i1l1502 01D6                      i1l1430 05FC  
                    i1l1406 05B8                      i1l1342 07A3                      i1l1270 0698  
                    i1l1262 0684                      i1l1254 0670                      i1l1238 0725  
                    i1l1246 072E                      u104_20 063B                      i1l1360 0614  
                    i1l1352 0608                      i1l1520 02CB                      i1l1512 0283  
                    i1l1504 01F3                      i1l1440 0045                      u120_20 0044  
                    i1l1432 0033                      u112_20 05C6                      i1l1408 05C0  
                    i1l1344 07B0                      i1l1600 054F                      i1l1272 069D  
                    i1l1264 0689                      i1l1256 0675                      u104_21 063A  
                    u120_21 0043                      u112_21 05C5                      i1l1370 0629  
                    i1l1362 0618                      i1l1354 0609                      i1l1530 02E3  
                    i1l1522 02CF                      i1l1514 02AB                      i1l1506 0220  
                    i1l1450 0061                      i1l1442 004A                      i1l1434 003A  
                    i1l1426 05E7                      i1l1418 05CE                      i1l1346 07B7  
                    i1l1338 079D                      i1l1610 0582                      i1l1602 0559  
                    i1l1266 068E                      i1l1258 067A                      i1l1380 064C  
                    i1l1372 062C                      i1l1364 061D                      i1l1356 060D  
                    i1l1540 0304                      i1l1532 02E4                      i1l1524 02D0  
                    i1l1516 02B4                      i1l1508 0230                      i1l1460 0076  
                    i1l1452 0066                      i1l1444 004F                      i1l1436 0040  
                    i1l1428 05F7                      i1l1348 07BD                      i1l1612 0583  
                    i1l1604 0563                      i1l1268 0693                      i1l1276 06A2  
                    i1l1620 03A1                      i1l1390 0665                      i1l1382 0652  
                    i1l1374 0633                      i1l1366 0621                      i1l1358 0612  
                    i1l1542 0309                      i1l1550 033A                      i1l1534 02E8  
                    i1l1526 02D9                      i1l1518 02C2                      i1l1470 0092  
                    i1l1462 007B                      i1l1454 006C                      i1l1446 0057  
                    i1l1438 0044                      i1l1606 0579                      i1l1630 0410  
                    i1l1622 03A4                      i1l1392 066A                      i1l1384 0653  
                    i1l1376 0637                      i1l1368 0623                      i1l1560 036D  
                    i1l1552 0347                      i1l1544 0317                      i1l1536 02FC  
                    i1l1528 02DF                      i1l1480 00BD                      i1l1472 0097  
                    i1l1464 0083                      i1l1456 0070                      i1l1448 0059  
                    u121_20 004A                      u113_20 05CD                      i1l1608 057E  
                    i1l1640 0463                      i1l1632 0415                      i1l1624 03AD  
                    i1l1616 0394                      u121_21 0049                      u113_21 05CC  
                    i1l1386 065A                      i1l1378 063B                      i1l1562 037B  
                    i1l1554 0352                      i1l1546 031B                      i1l1490 015A  
                    i1l1482 00DA                      i1l1466 0085                      i1l1458 0071  
                    i1l1650 04AA                      i1l1642 048D                      i1l1634 041A  
                    i1l1626 040B                      i1l1618 0398                      i1l1388 0660  
                    i1l1564 037F                      i1l1556 0361                      i1l1548 0334  
                    i1l1492 0163                      i1l1484 00F6                      i1l1476 00A0  
                    i1l1468 008D                      i1l1396 058C                      i1l1580 04FC  
                    i1l1572 04D3                      i1l1716 0735                      i1l1652 04B4  
                    i1l1644 0493                      i1l1636 0429                      i1l1628 040C  
                    u105_25 063C                      i1l1566 0380                      i1l1558 036B  
                    i1l1494 0173                      i1l1486 0122                      i1l1478 00B0  
                    i1l1398 0599                      i1l1590 051E                      i1l1574 04D8  
                    i1l1718 06A7                      i1l1654 04BB                      i1l1646 0499  
                    i1l1638 0454                      u106_20 064C                      i1l1568 038B  
                    i1l1496 0190                      i1l1488 013E                      u122_20 004F  
                    i1l1592 0522                      i1l1584 0505                      i1l1576 04DC  
                    i1l1656 04C4                      i1l1648 04A3                      u106_21 064B  
                    u130_21 0130                      u122_21 004E                      i1l1498 01A0  
                    u130_22 0137                      i1l1594 0530                      i1l1586 050A  
                    i1l1578 04EC                      u130_23 013E                      i1l1596 0540  
                    i1l1588 0517                      u106_25 0648                      u114_25 05CF  
                    i1l1598 054B                      u123_20 0070                      u115_20 05DF  
                    u131_21 014C                      u123_21 006F                      u115_21 05DE  
                    u131_22 0153                      u131_23 015A                      u107_25 0654  
                    u108_20 0660                      u124_20 0076                      u116_20 05E6  
                    u108_21 065F                      u140_21 0275                      u124_21 0075  
                    u116_21 05E5                      u140_22 027C                      u140_23 0283  
                    u132_25 015C                      u109_20 0665                      u141_20 0291  
                    u125_20 007B                      u109_21 0664                      u133_21 0182  
                    u125_21 007A                      u133_22 0189                      u133_23 0190  
                    u141_25 028C                      u117_25 05E9                      u150_20 0303  
                    u126_20 0092                      u118_20 05F7                      u150_21 0302  
                    u142_21 029D                      u134_21 01AF                      u126_21 0091  
                    u118_21 05F6                      u142_22 02A4                      u134_22 01B6  
                    u142_23 02AB                      u134_23 01BD                      u151_20 0309  
                    u127_20 0097                      u119_20 05FC                      u151_21 0308  
                    u127_21 0096                      u119_21 05FB                      u143_25 02AD  
                    u135_25 01BF                      u152_20 031B                      u152_21 031A  
                    u136_21 01E5                      u128_21 00E8                      u136_22 01EC  
                    u128_22 00EF                      u136_23 01F3                      u128_23 00F6  
                    u144_25 02C4                      u160_25 050F                      u153_20 032A  
                    u145_20 02CF                      u161_20 051D                      u145_21 02CE  
                    u137_21 0212                      u129_21 0104                      u161_21 051C  
                    u137_22 0219                      u129_22 010B                      u137_23 0220  
                    u129_23 0112                      u153_25 0325                      u154_20 0347  
                    u170_20 0582                      u154_21 0346                      u138_21 023F  
                    u170_21 0581                      u138_22 0246                      u138_23 024D  
                    u154_25 0343                      u146_25 02D2                      u162_25 0531  
                    u155_20 0361                      u147_20 02E3                      u139_20 0269  
                    u163_20 053F                      u171_20 0398                      u155_21 0360  
                    u147_21 02E2                      u163_21 053E                      u171_21 0397  
                    u155_25 035D                      u139_25 0264                      u156_20 037F  
                    u148_20 02E8                      u172_20 03A1                      u156_21 037E  
                    u148_21 02E7                      u172_21 03A0                      u164_25 0544  
                    u149_20 02FC                      u165_20 054F                      u157_20 04D8  
                    u173_20 03AD                      u149_21 02FB                      u165_21 054E  
                    u157_21 04D7                      u173_21 03AC                      u166_20 0555  
                    u158_20 04DC                      u174_20 0410                      u166_21 0554  
                    u158_21 04DB                      u174_21 040F                      u167_20 0559  
                    u159_20 04FC                      u175_20 0429                      u167_21 0558  
                    u159_21 04FB                      u175_21 0428                      u175_25 0425  
                    u168_20 056E                      u176_20 0463                      u176_21 0462  
                    u168_25 0569                      u176_25 045F                      u169_20 057E  
                    u177_20 0499                      u169_21 057D                      u177_21 0498  
                    u178_20 04AA                      u178_21 04A9                      u179_20 04BB  
                    u179_21 04BA            __end_of___xxtofl 058C                      ___wmul 079D  
                 ??___awdiv 0074                   ??___flmul 0028                   ??___fltol 003E  
          ___awdiv@quotient 0077                      saved_w 007E                ___xxtofl@arg 007A  
              ___xxtofl@exp 0079                ___xxtofl@val 0070     __end_of__initialization 002F  
            _select_display 070B                  ___fltol@f1 003A              __pcstackCOMMON 0070  
              __pidataBANK0 07C7               __end_of_setup 0776              _OPTION_REGbits 0081  
                   ??_setup 00A0                  __pbssBANK0 0051      __end_of_select_display 0741  
         __end_of__Umul8_16 079D                  __pmaintext 06C8                     ?___wmul 0070  
                __pintentry 0004                   ?___xxtofl 0070  display_table@decimal_value 0070  
           ?_select_display 0070                     ___awdiv 0608                     ___flmul 0033  
                   ___fltol 058C                     _isr$893 004D                     __ptext1 0741  
                   __ptext2 0394                     __ptext3 070B                     __ptext4 07C2  
                   __ptext5 066F                     __ptext6 04D2                     __ptext7 079D  
                   __ptext8 058C                     __ptext9 0033                  ??___xxtofl 0074  
      end_of_initialization 002F                  _reset_TMR0 07C2               ___xxtofl@sign 0078  
     __end_of_display_table 06C8                 ___flmul@grs 002E              __end_of___wmul 07C2  
       start_initialization 0015                 __end_of_isr 04D2                 ?_reset_TMR0 0070  
                  ??___wmul 0074                   __Umul8_16 0776                 __pdataBANK0 005F  
                 ___flmul@a 0024                   ___flmul@b 0020                   ___latbits 0002  
             __pcstackBANK0 0020               __pcstackBANK1 00A0            ??_select_display 0070  
                  ?___awdiv 0070                    ?___flmul 0020                    ?___fltol 003A  
                ?__Umul8_16 0070           interrupt_function 0004              ___wmul@product 0074  
                  _PIE1bits 008C                    _PIR1bits 000C                  _ADCON0bits 001F  
                _ADCON1bits 009F           ___wmul@multiplier 0070                 ??__Umul8_16 0072  
                  _adc_temp 005D                    ___xxtofl 04D2                    __ptext10 0776  
                  __ptext11 0608                ??_reset_TMR0 0070                    _selector 005F  
                _INTCONbits 000B          __end_of_reset_TMR0 07C7                    intlevel1 0000  
                _OSCCONbits 008F      __Umul8_16@multiplicand 0070              _display_values 0051  
             _display_table 066F        __Umul8_16@multiplier 0078           __Umul8_16@product 0074  
